ccopy_reg
_reconstructor
p0
(cnetworkx.classes.graph
Graph
p1
c__builtin__
object
p2
Ntp3
Rp4
(dp5
S'node'
p6
(dp7
I0
(dp8
S'Domain'
p9
I4
sS'Nbr_l'
p10
(lp11
I34
aI35
aI38
aI6
aI7
aI9
aI12
aI17
aI43
aI40
asS'Nbr_q'
p12
(lp13
I8
aI11
aI18
assI1
(dp14
g9
I4
sg10
(lp15
I37
aI6
asg12
(lp16
I2
aI3
aI36
aI39
aI11
aI45
aI17
aI19
aI20
aI29
aI30
assI2
(dp17
g9
I4
sg10
(lp18
I40
aI11
asg12
(lp19
I1
aI45
aI12
aI44
aI13
aI14
aI47
aI48
aI19
aI23
aI27
aI29
aI30
assI3
(dp20
g9
I4
sg10
(lp21
I8
aI12
asg12
(lp22
I1
aI36
aI42
aI47
aI16
aI20
aI21
aI22
aI26
aI29
assI4
(dp23
g9
I4
sg10
(lp24
I41
aI46
asg12
(lp25
I38
aI10
aI44
aI29
aI18
aI27
aI42
assI5
(dp26
g9
I4
sg10
(lp27
I41
aI42
aI11
aI14
aI15
aI48
aI17
aI28
asg12
(lp28
I6
aI19
assI6
(dp29
g9
I4
sg10
(lp30
I0
aI1
aI35
aI38
aI9
aI20
aI28
aI30
asg12
(lp31
I5
aI39
aI40
aI15
aI48
aI41
assI7
(dp32
g9
I4
sg10
(lp33
I0
aI33
aI37
aI8
aI41
aI10
aI11
aI46
aI15
aI18
aI19
aI22
aI29
asg12
(lp34
ssI8
(dp35
g9
I4
sg10
(lp36
I3
aI7
aI43
aI48
aI21
asg12
(lp37
I0
aI9
aI10
aI22
assI9
(dp38
g9
I4
sg10
(lp39
I0
aI6
asg12
(lp40
I8
aI47
aI16
aI40
aI21
aI23
aI26
assI10
(dp41
g9
I4
sg10
(lp42
I32
aI7
aI12
aI25
aI26
asg12
(lp43
I4
aI38
aI8
aI11
aI44
aI13
aI21
aI31
assI11
(dp44
g9
I4
sg10
(lp45
I2
aI5
aI7
asg12
(lp46
I0
aI1
aI35
aI36
aI10
aI18
aI23
aI29
assI12
(dp47
g9
I4
sg10
(lp48
I0
aI3
aI10
aI28
asg12
(lp49
I33
aI2
aI47
aI17
aI25
aI42
assI13
(dp50
g9
I4
sg10
(lp51
I41
asg12
(lp52
I2
aI35
aI36
aI10
aI34
aI47
aI48
aI27
aI15
aI30
assI14
(dp53
g9
I4
sg10
(lp54
I5
aI15
asg12
(lp55
I16
aI2
aI48
aI24
aI30
aI31
assI15
(dp56
g9
I4
sg10
(lp57
I5
aI7
aI14
asg12
(lp58
I36
aI6
aI40
aI13
aI47
aI29
assI16
(dp59
g9
I4
sg10
(lp60
I46
aI24
aI27
aI28
aI31
asg12
(lp61
I3
aI39
aI9
aI43
aI14
aI19
aI23
assI17
(dp62
g9
I4
sg10
(lp63
I0
aI5
asg12
(lp64
I1
aI12
aI32
assI18
(dp65
g9
I4
sg10
(lp66
I39
aI7
asg12
(lp67
I0
aI4
aI11
aI20
aI30
assI19
(dp68
g9
I4
sg10
(lp69
I7
aI33
aI27
asg12
(lp70
I32
aI1
aI2
aI35
aI5
aI16
assI20
(dp71
g9
I4
sg10
(lp72
I6
aI41
asg12
(lp73
I1
aI3
aI39
aI44
aI18
aI22
aI23
aI29
assI21
(dp74
g9
I4
sg10
(lp75
I8
aI40
asg12
(lp76
I34
aI3
aI9
aI10
aI44
aI48
assI22
(dp77
g9
I4
sg10
(lp78
I7
aI40
asg12
(lp79
I32
aI3
aI8
aI46
aI35
aI20
aI23
aI26
aI27
assI23
(dp80
g9
I4
sg10
(lp81
I37
aI28
asg12
(lp82
I2
aI9
aI11
aI16
aI20
aI22
assI24
(dp83
g9
I4
sg10
(lp84
I35
aI16
asg12
(lp85
I32
aI42
aI14
aI47
assI25
(dp86
g9
I4
sg10
(lp87
I40
aI10
asg12
(lp88
I12
aI34
assI26
(dp89
g9
I4
sg10
(lp90
I10
aI43
asg12
(lp91
I9
aI3
aI22
assI27
(dp92
g9
I4
sg10
(lp93
I16
aI19
asg12
(lp94
I2
aI35
aI4
aI13
aI22
assI28
(dp95
g9
I4
sg10
(lp96
I33
aI5
aI6
aI40
aI12
aI46
aI16
aI23
aI29
aI37
asg12
(lp97
ssI29
(dp98
g9
I4
sg10
(lp99
I7
aI45
aI36
aI28
asg12
(lp100
I1
aI2
aI3
aI4
aI37
aI11
aI15
aI35
aI20
assI30
(dp101
g9
I4
sg10
(lp102
I6
aI41
asg12
(lp103
I1
aI2
aI44
aI13
aI14
aI48
aI18
aI46
assI31
(dp104
g9
I4
sg10
(lp105
I37
aI16
asg12
(lp106
I34
aI10
aI44
aI14
assI32
(dp107
g9
I4
sg10
(lp108
I39
aI10
asg12
(lp109
I43
aI44
aI17
aI19
aI22
aI24
assI33
(dp110
g9
I4
sg10
(lp111
I39
aI41
aI43
aI44
aI19
aI7
aI28
asg12
(lp112
I12
aI46
assI34
(dp113
g9
I4
sg10
(lp114
I0
aI41
asg12
(lp115
I36
aI13
aI45
aI21
aI25
aI31
assI35
(dp116
g9
I4
sg10
(lp117
I0
aI6
aI42
aI24
asg12
(lp118
I11
aI13
aI47
aI19
aI22
aI27
aI29
assI36
(dp119
g9
I4
sg10
(lp120
I37
aI29
asg12
(lp121
I1
aI34
aI3
aI38
aI42
aI11
aI13
aI15
aI47
assI37
(dp122
g9
I4
sg10
(lp123
I1
aI36
aI7
aI23
aI28
aI31
asg12
(lp124
I29
assI38
(dp125
g9
I4
sg10
(lp126
I0
aI6
asg12
(lp127
I36
aI10
aI4
assI39
(dp128
g9
I4
sg10
(lp129
I32
aI33
aI18
asg12
(lp130
I1
aI6
aI45
aI16
aI20
assI40
(dp131
g9
I4
sg10
(lp132
I0
aI2
aI21
aI22
aI25
aI47
aI28
asg12
(lp133
I6
aI9
aI15
aI48
aI41
assI41
(dp134
g9
I4
sg10
(lp135
I33
aI34
aI4
aI5
aI7
aI13
aI45
aI20
aI47
aI30
asg12
(lp136
I6
aI40
aI43
aI44
assI42
(dp137
g9
I4
sg10
(lp138
I5
aI35
asg12
(lp139
I3
aI4
aI12
aI24
aI36
assI43
(dp140
g9
I4
sg10
(lp141
I0
aI33
aI8
aI26
asg12
(lp142
I32
aI41
aI45
aI46
aI16
assI44
(dp143
g9
I4
sg10
(lp144
I33
asg12
(lp145
I32
aI2
aI4
aI41
aI10
aI47
aI20
aI21
aI30
aI31
assI45
(dp146
g9
I4
sg10
(lp147
I41
aI29
asg12
(lp148
I1
aI2
aI39
aI43
aI34
assI46
(dp149
g9
I4
sg10
(lp150
I4
aI7
aI16
aI28
asg12
(lp151
I33
aI43
aI22
aI30
assI47
(dp152
g9
I4
sg10
(lp153
I40
aI41
asg12
(lp154
I2
aI3
aI36
aI9
aI12
aI13
aI15
aI48
aI35
aI24
aI44
assI48
(dp155
g9
I4
sg10
(lp156
I5
aI8
asg12
(lp157
I2
aI6
aI13
aI14
aI47
aI40
aI21
aI30
asssS'node_dict_factory'
p158
c__builtin__
dict
p159
sS'edge_attr_dict_factory'
p160
g159
sS'edge'
p161
(dp162
I0
(dp163
I34
(dp164
S'Potential'
p165
(dp166
(I0
I1
tp167
(lp168
I11
as(I1
I2
tp169
(lp170
I49
as(I3
I2
tp171
(lp172
I69
as(I0
I0
tp173
(lp174
I50
as(I3
I3
tp175
(lp176
I16
as(I3
I0
tp177
(lp178
I37
as(I3
I1
tp179
(lp180
I10
as(I2
I1
tp181
(lp182
I15
as(I0
I2
tp183
(lp184
I68
as(I2
I0
tp185
(lp186
I22
as(I1
I3
tp187
(lp188
I30
as(I2
I3
tp189
(lp190
I25
as(I2
I2
tp191
(lp192
I78
as(I1
I0
tp193
(lp194
I58
as(I0
I3
tp195
(lp196
I53
as(I1
I1
tp197
(lp198
I58
assS'Type'
p199
S'LP'
p200
ssI35
(dp201
g165
(dp202
(I0
I1
tp203
(lp204
I98
as(I1
I2
tp205
(lp206
I8
as(I3
I2
tp207
(lp208
I40
as(I0
I0
tp209
(lp210
I38
as(I3
I3
tp211
(lp212
I98
as(I3
I0
tp213
(lp214
I90
as(I3
I1
tp215
(lp216
I31
as(I2
I1
tp217
(lp218
I76
as(I0
I2
tp219
(lp220
I41
as(I2
I0
tp221
(lp222
I55
as(I1
I3
tp223
(lp224
I14
as(I2
I3
tp225
(lp226
I69
as(I2
I2
tp227
(lp228
I97
as(I1
I0
tp229
(lp230
I68
as(I0
I3
tp231
(lp232
I29
as(I1
I1
tp233
(lp234
I91
assg199
g200
ssI38
(dp235
g165
(dp236
(I0
I1
tp237
(lp238
I49
as(I1
I2
tp239
(lp240
I97
as(I3
I2
tp241
(lp242
I52
as(I0
I0
tp243
(lp244
I95
as(I3
I3
tp245
(lp246
I78
as(I3
I0
tp247
(lp248
I85
as(I3
I1
tp249
(lp250
I3
as(I2
I1
tp251
(lp252
I78
as(I0
I2
tp253
(lp254
I3
as(I2
I0
tp255
(lp256
I18
as(I1
I3
tp257
(lp258
I66
as(I2
I3
tp259
(lp260
I48
as(I2
I2
tp261
(lp262
I66
as(I1
I0
tp263
(lp264
I1
as(I0
I3
tp265
(lp266
I80
as(I1
I1
tp267
(lp268
I51
assg199
g200
ssI6
(dp269
g165
(dp270
(I0
I1
tp271
(lp272
I24
as(I1
I2
tp273
(lp274
I45
as(I3
I2
tp275
(lp276
I67
as(I0
I0
tp277
(lp278
I45
as(I3
I3
tp279
(lp280
I36
as(I3
I0
tp281
(lp282
I76
as(I3
I1
tp283
(lp284
I66
as(I2
I1
tp285
(lp286
I33
as(I0
I2
tp287
(lp288
I65
as(I2
I0
tp289
(lp290
I18
as(I1
I3
tp291
(lp292
I25
as(I2
I3
tp293
(lp294
I35
as(I2
I2
tp295
(lp296
I74
as(I1
I0
tp297
(lp298
I76
as(I0
I3
tp299
(lp300
I49
as(I1
I1
tp301
(lp302
I19
assg199
g200
ssI7
(dp303
g165
(dp304
(I0
I1
tp305
(lp306
I35
as(I1
I2
tp307
(lp308
I75
as(I3
I2
tp309
(lp310
I25
as(I0
I0
tp311
(lp312
I18
as(I3
I3
tp313
(lp314
I34
as(I3
I0
tp315
(lp316
I18
as(I3
I1
tp317
(lp318
I79
as(I2
I1
tp319
(lp320
I19
as(I0
I2
tp321
(lp322
I82
as(I2
I0
tp323
(lp324
I80
as(I1
I3
tp325
(lp326
I43
as(I2
I3
tp327
(lp328
I32
as(I2
I2
tp329
(lp330
I8
as(I1
I0
tp331
(lp332
I7
as(I0
I3
tp333
(lp334
I68
as(I1
I1
tp335
(lp336
I68
assg199
g200
ssI8
(dp337
g165
(dp338
(I0
I1
tp339
(lp340
I83
as(I1
I2
tp341
(lp342
I55
as(I3
I2
tp343
(lp344
I33
as(I0
I0
tp345
(lp346
I11
as(I3
I3
tp347
(lp348
I22
as(I3
I0
tp349
(lp350
I57
as(I3
I1
tp351
(lp352
I4
as(I2
I1
tp353
(lp354
I63
as(I0
I2
tp355
(lp356
I70
as(I2
I0
tp357
(lp358
I18
as(I1
I3
tp359
(lp360
I20
as(I2
I3
tp361
(lp362
I65
as(I2
I2
tp363
(lp364
I67
as(I1
I0
tp365
(lp366
I29
as(I0
I3
tp367
(lp368
I79
as(I1
I1
tp369
(lp370
I6
assg199
S'QP'
p371
ssI9
(dp372
g165
(dp373
(I0
I1
tp374
(lp375
I89
as(I1
I2
tp376
(lp377
I19
as(I3
I2
tp378
(lp379
I54
as(I0
I0
tp380
(lp381
I49
as(I3
I3
tp382
(lp383
I26
as(I3
I0
tp384
(lp385
I24
as(I3
I1
tp386
(lp387
I54
as(I2
I1
tp388
(lp389
I28
as(I0
I2
tp390
(lp391
I37
as(I2
I0
tp392
(lp393
I82
as(I1
I3
tp394
(lp395
I25
as(I2
I3
tp396
(lp397
I60
as(I2
I2
tp398
(lp399
I75
as(I1
I0
tp400
(lp401
I33
as(I0
I3
tp402
(lp403
I9
as(I1
I1
tp404
(lp405
I82
assg199
g200
ssI11
(dp406
g165
(dp407
(I0
I1
tp408
(lp409
I73
as(I1
I2
tp410
(lp411
I93
as(I3
I2
tp412
(lp413
I15
as(I0
I0
tp414
(lp415
I27
as(I3
I3
tp416
(lp417
I70
as(I3
I0
tp418
(lp419
I40
as(I3
I1
tp420
(lp421
I41
as(I2
I1
tp422
(lp423
I51
as(I0
I2
tp424
(lp425
I15
as(I2
I0
tp426
(lp427
I63
as(I1
I3
tp428
(lp429
I78
as(I2
I3
tp430
(lp431
I95
as(I2
I2
tp432
(lp433
I14
as(I1
I0
tp434
(lp435
I98
as(I0
I3
tp436
(lp437
I70
as(I1
I1
tp438
(lp439
I39
assg199
g371
ssI12
(dp440
g165
(dp441
(I0
I1
tp442
(lp443
I80
as(I1
I2
tp444
(lp445
I34
as(I3
I2
tp446
(lp447
I71
as(I0
I0
tp448
(lp449
I41
as(I3
I3
tp450
(lp451
I94
as(I3
I0
tp452
(lp453
I72
as(I3
I1
tp454
(lp455
I53
as(I2
I1
tp456
(lp457
I49
as(I0
I2
tp458
(lp459
I72
as(I2
I0
tp460
(lp461
I20
as(I1
I3
tp462
(lp463
I72
as(I2
I3
tp464
(lp465
I84
as(I2
I2
tp466
(lp467
I55
as(I1
I0
tp468
(lp469
I17
as(I0
I3
tp470
(lp471
I63
as(I1
I1
tp472
(lp473
I80
assg199
g200
ssI17
(dp474
g165
(dp475
(I0
I1
tp476
(lp477
I51
as(I1
I2
tp478
(lp479
I88
as(I3
I2
tp480
(lp481
I48
as(I0
I0
tp482
(lp483
I28
as(I3
I3
tp484
(lp485
I95
as(I3
I0
tp486
(lp487
I86
as(I3
I1
tp488
(lp489
I9
as(I2
I1
tp490
(lp491
I40
as(I0
I2
tp492
(lp493
I30
as(I2
I0
tp494
(lp495
I73
as(I1
I3
tp496
(lp497
I91
as(I2
I3
tp498
(lp499
I40
as(I2
I2
tp500
(lp501
I61
as(I1
I0
tp502
(lp503
I78
as(I0
I3
tp504
(lp505
I83
as(I1
I1
tp506
(lp507
I4
assg199
g200
ssI18
(dp508
g165
(dp509
(I0
I1
tp510
(lp511
I42
as(I1
I2
tp512
(lp513
I40
as(I3
I2
tp514
(lp515
I72
as(I0
I0
tp516
(lp517
I15
as(I3
I3
tp518
(lp519
I8
as(I3
I0
tp520
(lp521
I9
as(I3
I1
tp522
(lp523
I50
as(I2
I1
tp524
(lp525
I100
as(I0
I2
tp526
(lp527
I76
as(I2
I0
tp528
(lp529
I62
as(I1
I3
tp530
(lp531
I89
as(I2
I3
tp532
(lp533
I7
as(I2
I2
tp534
(lp535
I88
as(I1
I0
tp536
(lp537
I51
as(I0
I3
tp538
(lp539
I82
as(I1
I1
tp540
(lp541
I14
assg199
g371
ssI43
(dp542
g165
(dp543
(I0
I1
tp544
(lp545
I93
as(I1
I2
tp546
(lp547
I8
as(I3
I2
tp548
(lp549
I64
as(I0
I0
tp550
(lp551
I64
as(I3
I3
tp552
(lp553
I81
as(I3
I0
tp554
(lp555
I22
as(I3
I1
tp556
(lp557
I94
as(I2
I1
tp558
(lp559
I77
as(I0
I2
tp560
(lp561
I47
as(I2
I0
tp562
(lp563
I19
as(I1
I3
tp564
(lp565
I1
as(I2
I3
tp566
(lp567
I42
as(I2
I2
tp568
(lp569
I45
as(I1
I0
tp570
(lp571
I69
as(I0
I3
tp572
(lp573
I38
as(I1
I1
tp574
(lp575
I34
assg199
g200
ssI40
(dp576
g165
(dp577
(I0
I1
tp578
(lp579
I9
as(I1
I2
tp580
(lp581
I99
as(I3
I2
tp582
(lp583
I12
as(I0
I0
tp584
(lp585
I85
as(I3
I3
tp586
(lp587
I51
as(I3
I0
tp588
(lp589
I32
as(I3
I1
tp590
(lp591
I6
as(I2
I1
tp592
(lp593
I78
as(I0
I2
tp594
(lp595
I92
as(I2
I0
tp596
(lp597
I72
as(I1
I3
tp598
(lp599
I68
as(I2
I3
tp600
(lp601
I44
as(I2
I2
tp602
(lp603
I78
as(I1
I0
tp604
(lp605
I15
as(I0
I3
tp606
(lp607
I38
as(I1
I1
tp608
(lp609
I21
assg199
g200
sssI1
(dp610
I2
(dp611
g165
(dp612
(I0
I1
tp613
(lp614
I99
as(I1
I2
tp615
(lp616
I52
as(I3
I2
tp617
(lp618
I67
as(I0
I0
tp619
(lp620
I48
as(I3
I3
tp621
(lp622
I52
as(I3
I0
tp623
(lp624
I7
as(I3
I1
tp625
(lp626
I93
as(I2
I1
tp627
(lp628
I25
as(I0
I2
tp629
(lp630
I32
as(I2
I0
tp631
(lp632
I97
as(I1
I3
tp633
(lp634
I65
as(I2
I3
tp635
(lp636
I34
as(I2
I2
tp637
(lp638
I16
as(I1
I0
tp639
(lp640
I54
as(I0
I3
tp641
(lp642
I28
as(I1
I1
tp643
(lp644
I90
assg199
g371
ssI3
(dp645
g165
(dp646
(I0
I1
tp647
(lp648
I51
as(I1
I2
tp649
(lp650
I9
as(I3
I2
tp651
(lp652
I58
as(I0
I0
tp653
(lp654
I4
as(I3
I3
tp655
(lp656
I78
as(I3
I0
tp657
(lp658
I72
as(I3
I1
tp659
(lp660
I60
as(I2
I1
tp661
(lp662
I71
as(I0
I2
tp663
(lp664
I38
as(I2
I0
tp665
(lp666
I33
as(I1
I3
tp667
(lp668
I52
as(I2
I3
tp669
(lp670
I76
as(I2
I2
tp671
(lp672
I90
as(I1
I0
tp673
(lp674
I83
as(I0
I3
tp675
(lp676
I70
as(I1
I1
tp677
(lp678
I89
assg199
g371
ssI36
(dp679
g165
(dp680
(I0
I1
tp681
(lp682
I9
as(I1
I2
tp683
(lp684
I99
as(I3
I2
tp685
(lp686
I99
as(I0
I0
tp687
(lp688
I38
as(I3
I3
tp689
(lp690
I27
as(I3
I0
tp691
(lp692
I70
as(I3
I1
tp693
(lp694
I28
as(I2
I1
tp695
(lp696
I1
as(I0
I2
tp697
(lp698
I41
as(I2
I0
tp699
(lp700
I94
as(I1
I3
tp701
(lp702
I23
as(I2
I3
tp703
(lp704
I6
as(I2
I2
tp705
(lp706
I96
as(I1
I0
tp707
(lp708
I31
as(I0
I3
tp709
(lp710
I94
as(I1
I1
tp711
(lp712
I97
assg199
g371
ssI37
(dp713
g165
(dp714
(I0
I1
tp715
(lp716
I58
as(I1
I2
tp717
(lp718
I68
as(I3
I2
tp719
(lp720
I33
as(I0
I0
tp721
(lp722
I19
as(I3
I3
tp723
(lp724
I62
as(I3
I0
tp725
(lp726
I38
as(I3
I1
tp727
(lp728
I65
as(I2
I1
tp729
(lp730
I80
as(I0
I2
tp731
(lp732
I60
as(I2
I0
tp733
(lp734
I67
as(I1
I3
tp735
(lp736
I34
as(I2
I3
tp737
(lp738
I10
as(I2
I2
tp739
(lp740
I23
as(I1
I0
tp741
(lp742
I99
as(I0
I3
tp743
(lp744
I45
as(I1
I1
tp745
(lp746
I22
assg199
g200
ssI6
(dp747
g165
(dp748
(I0
I1
tp749
(lp750
I84
as(I1
I2
tp751
(lp752
I27
as(I3
I2
tp753
(lp754
I19
as(I0
I0
tp755
(lp756
I13
as(I3
I3
tp757
(lp758
I50
as(I3
I0
tp759
(lp760
I59
as(I3
I1
tp761
(lp762
I58
as(I2
I1
tp763
(lp764
I96
as(I0
I2
tp765
(lp766
I37
as(I2
I0
tp767
(lp768
I66
as(I1
I3
tp769
(lp770
I53
as(I2
I3
tp771
(lp772
I22
as(I2
I2
tp773
(lp774
I40
as(I1
I0
tp775
(lp776
I2
as(I0
I3
tp777
(lp778
I99
as(I1
I1
tp779
(lp780
I58
assg199
g200
ssI39
(dp781
g165
(dp782
(I0
I1
tp783
(lp784
I25
as(I1
I2
tp785
(lp786
I29
as(I3
I2
tp787
(lp788
I21
as(I0
I0
tp789
(lp790
I4
as(I3
I3
tp791
(lp792
I3
as(I3
I0
tp793
(lp794
I7
as(I3
I1
tp795
(lp796
I34
as(I2
I1
tp797
(lp798
I62
as(I0
I2
tp799
(lp800
I27
as(I2
I0
tp801
(lp802
I81
as(I1
I3
tp803
(lp804
I90
as(I2
I3
tp805
(lp806
I98
as(I2
I2
tp807
(lp808
I25
as(I1
I0
tp809
(lp810
I81
as(I0
I3
tp811
(lp812
I34
as(I1
I1
tp813
(lp814
I49
assg199
g371
ssI11
(dp815
g165
(dp816
(I0
I1
tp817
(lp818
I31
as(I1
I2
tp819
(lp820
I38
as(I3
I2
tp821
(lp822
I4
as(I0
I0
tp823
(lp824
I29
as(I3
I3
tp825
(lp826
I51
as(I3
I0
tp827
(lp828
I20
as(I3
I1
tp829
(lp830
I63
as(I2
I1
tp831
(lp832
I34
as(I0
I2
tp833
(lp834
I41
as(I2
I0
tp835
(lp836
I95
as(I1
I3
tp837
(lp838
I82
as(I2
I3
tp839
(lp840
I37
as(I2
I2
tp841
(lp842
I3
as(I1
I0
tp843
(lp844
I4
as(I0
I3
tp845
(lp846
I72
as(I1
I1
tp847
(lp848
I85
assg199
g371
ssI45
(dp849
g165
(dp850
(I0
I1
tp851
(lp852
I16
as(I1
I2
tp853
(lp854
I82
as(I3
I2
tp855
(lp856
I2
as(I0
I0
tp857
(lp858
I40
as(I3
I3
tp859
(lp860
I87
as(I3
I0
tp861
(lp862
I24
as(I3
I1
tp863
(lp864
I13
as(I2
I1
tp865
(lp866
I53
as(I0
I2
tp867
(lp868
I43
as(I2
I0
tp869
(lp870
I10
as(I1
I3
tp871
(lp872
I99
as(I2
I3
tp873
(lp874
I58
as(I2
I2
tp875
(lp876
I37
as(I1
I0
tp877
(lp878
I19
as(I0
I3
tp879
(lp880
I27
as(I1
I1
tp881
(lp882
I46
assg199
g371
ssI17
(dp883
g165
(dp884
(I0
I1
tp885
(lp886
I83
as(I1
I2
tp887
(lp888
I61
as(I3
I2
tp889
(lp890
I73
as(I0
I0
tp891
(lp892
I10
as(I3
I3
tp893
(lp894
I76
as(I3
I0
tp895
(lp896
I68
as(I3
I1
tp897
(lp898
I40
as(I2
I1
tp899
(lp900
I85
as(I0
I2
tp901
(lp902
I90
as(I2
I0
tp903
(lp904
I99
as(I1
I3
tp905
(lp906
I93
as(I2
I3
tp907
(lp908
I31
as(I2
I2
tp909
(lp910
I52
as(I1
I0
tp911
(lp912
I4
as(I0
I3
tp913
(lp914
I36
as(I1
I1
tp915
(lp916
I41
assg199
g371
ssI19
(dp917
g165
(dp918
(I0
I1
tp919
(lp920
I22
as(I1
I2
tp921
(lp922
I83
as(I3
I2
tp923
(lp924
I94
as(I0
I0
tp925
(lp926
I67
as(I3
I3
tp927
(lp928
I43
as(I3
I0
tp929
(lp930
I19
as(I3
I1
tp931
(lp932
I84
as(I2
I1
tp933
(lp934
I44
as(I0
I2
tp935
(lp936
I64
as(I2
I0
tp937
(lp938
I80
as(I1
I3
tp939
(lp940
I3
as(I2
I3
tp941
(lp942
I46
as(I2
I2
tp943
(lp944
I25
as(I1
I0
tp945
(lp946
I11
as(I0
I3
tp947
(lp948
I26
as(I1
I1
tp949
(lp950
I100
assg199
g371
ssI20
(dp951
g165
(dp952
(I0
I1
tp953
(lp954
I89
as(I1
I2
tp955
(lp956
I74
as(I3
I2
tp957
(lp958
I24
as(I0
I0
tp959
(lp960
I100
as(I3
I3
tp961
(lp962
I40
as(I3
I0
tp963
(lp964
I71
as(I3
I1
tp965
(lp966
I68
as(I2
I1
tp967
(lp968
I55
as(I0
I2
tp969
(lp970
I50
as(I2
I0
tp971
(lp972
I6
as(I1
I3
tp973
(lp974
I24
as(I2
I3
tp975
(lp976
I20
as(I2
I2
tp977
(lp978
I52
as(I1
I0
tp979
(lp980
I56
as(I0
I3
tp981
(lp982
I96
as(I1
I1
tp983
(lp984
I30
assg199
g371
ssI29
(dp985
g165
(dp986
(I0
I1
tp987
(lp988
I14
as(I1
I2
tp989
(lp990
I96
as(I3
I2
tp991
(lp992
I59
as(I0
I0
tp993
(lp994
I21
as(I3
I3
tp995
(lp996
I60
as(I3
I0
tp997
(lp998
I30
as(I3
I1
tp999
(lp1000
I29
as(I2
I1
tp1001
(lp1002
I41
as(I0
I2
tp1003
(lp1004
I51
as(I2
I0
tp1005
(lp1006
I55
as(I1
I3
tp1007
(lp1008
I65
as(I2
I3
tp1009
(lp1010
I83
as(I2
I2
tp1011
(lp1012
I63
as(I1
I0
tp1013
(lp1014
I18
as(I0
I3
tp1015
(lp1016
I50
as(I1
I1
tp1017
(lp1018
I59
assg199
g371
ssI30
(dp1019
g165
(dp1020
(I0
I1
tp1021
(lp1022
I32
as(I1
I2
tp1023
(lp1024
I58
as(I3
I2
tp1025
(lp1026
I63
as(I0
I0
tp1027
(lp1028
I36
as(I3
I3
tp1029
(lp1030
I60
as(I3
I0
tp1031
(lp1032
I55
as(I3
I1
tp1033
(lp1034
I80
as(I2
I1
tp1035
(lp1036
I59
as(I0
I2
tp1037
(lp1038
I64
as(I2
I0
tp1039
(lp1040
I23
as(I1
I3
tp1041
(lp1042
I37
as(I2
I3
tp1043
(lp1044
I83
as(I2
I2
tp1045
(lp1046
I92
as(I1
I0
tp1047
(lp1048
I97
as(I0
I3
tp1049
(lp1050
I50
as(I1
I1
tp1051
(lp1052
I53
assg199
g371
sssI2
(dp1053
I1
g611
sI45
(dp1054
g165
(dp1055
(I0
I1
tp1056
(lp1057
I55
as(I1
I2
tp1058
(lp1059
I74
as(I3
I2
tp1060
(lp1061
I66
as(I0
I0
tp1062
(lp1063
I6
as(I3
I3
tp1064
(lp1065
I71
as(I3
I0
tp1066
(lp1067
I96
as(I3
I1
tp1068
(lp1069
I56
as(I2
I1
tp1070
(lp1071
I8
as(I0
I2
tp1072
(lp1073
I29
as(I2
I0
tp1074
(lp1075
I5
as(I1
I3
tp1076
(lp1077
I91
as(I2
I3
tp1078
(lp1079
I37
as(I2
I2
tp1080
(lp1081
I32
as(I1
I0
tp1082
(lp1083
I76
as(I0
I3
tp1084
(lp1085
I58
as(I1
I1
tp1086
(lp1087
I86
assg199
g371
ssI40
(dp1088
g165
(dp1089
(I0
I1
tp1090
(lp1091
I49
as(I1
I2
tp1092
(lp1093
I24
as(I3
I2
tp1094
(lp1095
I51
as(I0
I0
tp1096
(lp1097
I16
as(I3
I3
tp1098
(lp1099
I5
as(I3
I0
tp1100
(lp1101
I4
as(I3
I1
tp1102
(lp1103
I50
as(I2
I1
tp1104
(lp1105
I57
as(I0
I2
tp1106
(lp1107
I81
as(I2
I0
tp1108
(lp1109
I31
as(I1
I3
tp1110
(lp1111
I48
as(I2
I3
tp1112
(lp1113
I4
as(I2
I2
tp1114
(lp1115
I18
as(I1
I0
tp1116
(lp1117
I33
as(I0
I3
tp1118
(lp1119
I18
as(I1
I1
tp1120
(lp1121
I35
assg199
g200
ssI12
(dp1122
g165
(dp1123
(I0
I1
tp1124
(lp1125
I70
as(I1
I2
tp1126
(lp1127
I50
as(I3
I2
tp1128
(lp1129
I89
as(I0
I0
tp1130
(lp1131
I59
as(I3
I3
tp1132
(lp1133
I30
as(I3
I0
tp1134
(lp1135
I48
as(I3
I1
tp1136
(lp1137
I8
as(I2
I1
tp1138
(lp1139
I45
as(I0
I2
tp1140
(lp1141
I57
as(I2
I0
tp1142
(lp1143
I14
as(I1
I3
tp1144
(lp1145
I34
as(I2
I3
tp1146
(lp1147
I97
as(I2
I2
tp1148
(lp1149
I31
as(I1
I0
tp1150
(lp1151
I17
as(I0
I3
tp1152
(lp1153
I54
as(I1
I1
tp1154
(lp1155
I17
assg199
g371
ssI11
(dp1156
g165
(dp1157
(I0
I1
tp1158
(lp1159
I42
as(I1
I2
tp1160
(lp1161
I89
as(I3
I2
tp1162
(lp1163
I13
as(I0
I0
tp1164
(lp1165
I14
as(I3
I3
tp1166
(lp1167
I77
as(I3
I0
tp1168
(lp1169
I18
as(I3
I1
tp1170
(lp1171
I28
as(I2
I1
tp1172
(lp1173
I57
as(I0
I2
tp1174
(lp1175
I46
as(I2
I0
tp1176
(lp1177
I63
as(I1
I3
tp1178
(lp1179
I19
as(I2
I3
tp1180
(lp1181
I83
as(I2
I2
tp1182
(lp1183
I29
as(I1
I0
tp1184
(lp1185
I8
as(I0
I3
tp1186
(lp1187
I10
as(I1
I1
tp1188
(lp1189
I20
assg199
g200
ssI44
(dp1190
g165
(dp1191
(I0
I1
tp1192
(lp1193
I79
as(I1
I2
tp1194
(lp1195
I96
as(I3
I2
tp1196
(lp1197
I80
as(I0
I0
tp1198
(lp1199
I87
as(I3
I3
tp1200
(lp1201
I32
as(I3
I0
tp1202
(lp1203
I93
as(I3
I1
tp1204
(lp1205
I32
as(I2
I1
tp1206
(lp1207
I99
as(I0
I2
tp1208
(lp1209
I21
as(I2
I0
tp1210
(lp1211
I93
as(I1
I3
tp1212
(lp1213
I73
as(I2
I3
tp1214
(lp1215
I57
as(I2
I2
tp1216
(lp1217
I1
as(I1
I0
tp1218
(lp1219
I52
as(I0
I3
tp1220
(lp1221
I26
as(I1
I1
tp1222
(lp1223
I87
assg199
g371
ssI13
(dp1224
g165
(dp1225
(I0
I1
tp1226
(lp1227
I60
as(I1
I2
tp1228
(lp1229
I15
as(I3
I2
tp1230
(lp1231
I72
as(I0
I0
tp1232
(lp1233
I52
as(I3
I3
tp1234
(lp1235
I59
as(I3
I0
tp1236
(lp1237
I98
as(I3
I1
tp1238
(lp1239
I52
as(I2
I1
tp1240
(lp1241
I21
as(I0
I2
tp1242
(lp1243
I88
as(I2
I0
tp1244
(lp1245
I96
as(I1
I3
tp1246
(lp1247
I56
as(I2
I3
tp1248
(lp1249
I100
as(I2
I2
tp1250
(lp1251
I18
as(I1
I0
tp1252
(lp1253
I30
as(I0
I3
tp1254
(lp1255
I59
as(I1
I1
tp1256
(lp1257
I70
assg199
g371
ssI14
(dp1258
g165
(dp1259
(I0
I1
tp1260
(lp1261
I96
as(I1
I2
tp1262
(lp1263
I1
as(I3
I2
tp1264
(lp1265
I87
as(I0
I0
tp1266
(lp1267
I65
as(I3
I3
tp1268
(lp1269
I19
as(I3
I0
tp1270
(lp1271
I72
as(I3
I1
tp1272
(lp1273
I88
as(I2
I1
tp1274
(lp1275
I95
as(I0
I2
tp1276
(lp1277
I61
as(I2
I0
tp1278
(lp1279
I91
as(I1
I3
tp1280
(lp1281
I41
as(I2
I3
tp1282
(lp1283
I94
as(I2
I2
tp1284
(lp1285
I89
as(I1
I0
tp1286
(lp1287
I83
as(I0
I3
tp1288
(lp1289
I48
as(I1
I1
tp1290
(lp1291
I54
assg199
g371
ssI47
(dp1292
g165
(dp1293
(I0
I1
tp1294
(lp1295
I36
as(I1
I2
tp1296
(lp1297
I5
as(I3
I2
tp1298
(lp1299
I86
as(I0
I0
tp1300
(lp1301
I6
as(I3
I3
tp1302
(lp1303
I65
as(I3
I0
tp1304
(lp1305
I75
as(I3
I1
tp1306
(lp1307
I69
as(I2
I1
tp1308
(lp1309
I35
as(I0
I2
tp1310
(lp1311
I61
as(I2
I0
tp1312
(lp1313
I74
as(I1
I3
tp1314
(lp1315
I75
as(I2
I3
tp1316
(lp1317
I57
as(I2
I2
tp1318
(lp1319
I64
as(I1
I0
tp1320
(lp1321
I42
as(I0
I3
tp1322
(lp1323
I98
as(I1
I1
tp1324
(lp1325
I15
assg199
g371
ssI48
(dp1326
g165
(dp1327
(I0
I1
tp1328
(lp1329
I46
as(I1
I2
tp1330
(lp1331
I80
as(I3
I2
tp1332
(lp1333
I60
as(I0
I0
tp1334
(lp1335
I94
as(I3
I3
tp1336
(lp1337
I54
as(I3
I0
tp1338
(lp1339
I12
as(I3
I1
tp1340
(lp1341
I51
as(I2
I1
tp1342
(lp1343
I61
as(I0
I2
tp1344
(lp1345
I64
as(I2
I0
tp1346
(lp1347
I55
as(I1
I3
tp1348
(lp1349
I40
as(I2
I3
tp1350
(lp1351
I50
as(I2
I2
tp1352
(lp1353
I32
as(I1
I0
tp1354
(lp1355
I23
as(I0
I3
tp1356
(lp1357
I24
as(I1
I1
tp1358
(lp1359
I66
assg199
g371
ssI19
(dp1360
g165
(dp1361
(I0
I1
tp1362
(lp1363
I31
as(I1
I2
tp1364
(lp1365
I15
as(I3
I2
tp1366
(lp1367
I81
as(I0
I0
tp1368
(lp1369
I37
as(I3
I3
tp1370
(lp1371
I42
as(I3
I0
tp1372
(lp1373
I27
as(I3
I1
tp1374
(lp1375
I62
as(I2
I1
tp1376
(lp1377
I34
as(I0
I2
tp1378
(lp1379
I38
as(I2
I0
tp1380
(lp1381
I89
as(I1
I3
tp1382
(lp1383
I21
as(I2
I3
tp1384
(lp1385
I16
as(I2
I2
tp1386
(lp1387
I66
as(I1
I0
tp1388
(lp1389
I49
as(I0
I3
tp1390
(lp1391
I60
as(I1
I1
tp1392
(lp1393
I15
assg199
g371
ssI23
(dp1394
g165
(dp1395
(I0
I1
tp1396
(lp1397
I73
as(I1
I2
tp1398
(lp1399
I68
as(I3
I2
tp1400
(lp1401
I68
as(I0
I0
tp1402
(lp1403
I99
as(I3
I3
tp1404
(lp1405
I88
as(I3
I0
tp1406
(lp1407
I79
as(I3
I1
tp1408
(lp1409
I11
as(I2
I1
tp1410
(lp1411
I46
as(I0
I2
tp1412
(lp1413
I35
as(I2
I0
tp1414
(lp1415
I95
as(I1
I3
tp1416
(lp1417
I34
as(I2
I3
tp1418
(lp1419
I100
as(I2
I2
tp1420
(lp1421
I9
as(I1
I0
tp1422
(lp1423
I61
as(I0
I3
tp1424
(lp1425
I47
as(I1
I1
tp1426
(lp1427
I96
assg199
g371
ssI27
(dp1428
g165
(dp1429
(I0
I1
tp1430
(lp1431
I68
as(I1
I2
tp1432
(lp1433
I87
as(I3
I2
tp1434
(lp1435
I78
as(I0
I0
tp1436
(lp1437
I73
as(I3
I3
tp1438
(lp1439
I94
as(I3
I0
tp1440
(lp1441
I88
as(I3
I1
tp1442
(lp1443
I6
as(I2
I1
tp1444
(lp1445
I18
as(I0
I2
tp1446
(lp1447
I1
as(I2
I0
tp1448
(lp1449
I62
as(I1
I3
tp1450
(lp1451
I63
as(I2
I3
tp1452
(lp1453
I64
as(I2
I2
tp1454
(lp1455
I1
as(I1
I0
tp1456
(lp1457
I93
as(I0
I3
tp1458
(lp1459
I55
as(I1
I1
tp1460
(lp1461
I63
assg199
g371
ssI29
(dp1462
g165
(dp1463
(I0
I1
tp1464
(lp1465
I85
as(I1
I2
tp1466
(lp1467
I29
as(I3
I2
tp1468
(lp1469
I95
as(I0
I0
tp1470
(lp1471
I75
as(I3
I3
tp1472
(lp1473
I94
as(I3
I0
tp1474
(lp1475
I100
as(I3
I1
tp1476
(lp1477
I78
as(I2
I1
tp1478
(lp1479
I83
as(I0
I2
tp1480
(lp1481
I6
as(I2
I0
tp1482
(lp1483
I25
as(I1
I3
tp1484
(lp1485
I39
as(I2
I3
tp1486
(lp1487
I80
as(I2
I2
tp1488
(lp1489
I8
as(I1
I0
tp1490
(lp1491
I70
as(I0
I3
tp1492
(lp1493
I93
as(I1
I1
tp1494
(lp1495
I24
assg199
g371
ssI30
(dp1496
g165
(dp1497
(I0
I1
tp1498
(lp1499
I91
as(I1
I2
tp1500
(lp1501
I97
as(I3
I2
tp1502
(lp1503
I35
as(I0
I0
tp1504
(lp1505
I83
as(I3
I3
tp1506
(lp1507
I4
as(I3
I0
tp1508
(lp1509
I53
as(I3
I1
tp1510
(lp1511
I89
as(I2
I1
tp1512
(lp1513
I65
as(I0
I2
tp1514
(lp1515
I32
as(I2
I0
tp1516
(lp1517
I50
as(I1
I3
tp1518
(lp1519
I57
as(I2
I3
tp1520
(lp1521
I86
as(I2
I2
tp1522
(lp1523
I27
as(I1
I0
tp1524
(lp1525
I66
as(I0
I3
tp1526
(lp1527
I60
as(I1
I1
tp1528
(lp1529
I93
assg199
g371
sssI3
(dp1530
I1
g645
sI36
(dp1531
g165
(dp1532
(I0
I1
tp1533
(lp1534
I95
as(I1
I2
tp1535
(lp1536
I28
as(I3
I2
tp1537
(lp1538
I69
as(I0
I0
tp1539
(lp1540
I82
as(I3
I3
tp1541
(lp1542
I24
as(I3
I0
tp1543
(lp1544
I11
as(I3
I1
tp1545
(lp1546
I64
as(I2
I1
tp1547
(lp1548
I83
as(I0
I2
tp1549
(lp1550
I29
as(I2
I0
tp1551
(lp1552
I76
as(I1
I3
tp1553
(lp1554
I7
as(I2
I3
tp1555
(lp1556
I20
as(I2
I2
tp1557
(lp1558
I77
as(I1
I0
tp1559
(lp1560
I6
as(I0
I3
tp1561
(lp1562
I8
as(I1
I1
tp1563
(lp1564
I72
assg199
g371
ssI8
(dp1565
g165
(dp1566
(I0
I1
tp1567
(lp1568
I60
as(I1
I2
tp1569
(lp1570
I10
as(I3
I2
tp1571
(lp1572
I79
as(I0
I0
tp1573
(lp1574
I53
as(I3
I3
tp1575
(lp1576
I37
as(I3
I0
tp1577
(lp1578
I97
as(I3
I1
tp1579
(lp1580
I73
as(I2
I1
tp1581
(lp1582
I9
as(I0
I2
tp1583
(lp1584
I41
as(I2
I0
tp1585
(lp1586
I74
as(I1
I3
tp1587
(lp1588
I56
as(I2
I3
tp1589
(lp1590
I85
as(I2
I2
tp1591
(lp1592
I22
as(I1
I0
tp1593
(lp1594
I64
as(I0
I3
tp1595
(lp1596
I96
as(I1
I1
tp1597
(lp1598
I89
assg199
g200
ssI42
(dp1599
g165
(dp1600
(I0
I1
tp1601
(lp1602
I11
as(I1
I2
tp1603
(lp1604
I36
as(I3
I2
tp1605
(lp1606
I33
as(I0
I0
tp1607
(lp1608
I21
as(I3
I3
tp1609
(lp1610
I52
as(I3
I0
tp1611
(lp1612
I17
as(I3
I1
tp1613
(lp1614
I92
as(I2
I1
tp1615
(lp1616
I17
as(I0
I2
tp1617
(lp1618
I14
as(I2
I0
tp1619
(lp1620
I44
as(I1
I3
tp1621
(lp1622
I39
as(I2
I3
tp1623
(lp1624
I55
as(I2
I2
tp1625
(lp1626
I73
as(I1
I0
tp1627
(lp1628
I65
as(I0
I3
tp1629
(lp1630
I34
as(I1
I1
tp1631
(lp1632
I29
assg199
g371
ssI12
(dp1633
g165
(dp1634
(I0
I1
tp1635
(lp1636
I28
as(I1
I2
tp1637
(lp1638
I1
as(I3
I2
tp1639
(lp1640
I83
as(I0
I0
tp1641
(lp1642
I11
as(I3
I3
tp1643
(lp1644
I67
as(I3
I0
tp1645
(lp1646
I26
as(I3
I1
tp1647
(lp1648
I55
as(I2
I1
tp1649
(lp1650
I72
as(I0
I2
tp1651
(lp1652
I87
as(I2
I0
tp1653
(lp1654
I22
as(I1
I3
tp1655
(lp1656
I79
as(I2
I3
tp1657
(lp1658
I97
as(I2
I2
tp1659
(lp1660
I41
as(I1
I0
tp1661
(lp1662
I27
as(I0
I3
tp1663
(lp1664
I18
as(I1
I1
tp1665
(lp1666
I55
assg199
g200
ssI47
(dp1667
g165
(dp1668
(I0
I1
tp1669
(lp1670
I12
as(I1
I2
tp1671
(lp1672
I77
as(I3
I2
tp1673
(lp1674
I49
as(I0
I0
tp1675
(lp1676
I84
as(I3
I3
tp1677
(lp1678
I5
as(I3
I0
tp1679
(lp1680
I47
as(I3
I1
tp1681
(lp1682
I34
as(I2
I1
tp1683
(lp1684
I8
as(I0
I2
tp1685
(lp1686
I72
as(I2
I0
tp1687
(lp1688
I19
as(I1
I3
tp1689
(lp1690
I4
as(I2
I3
tp1691
(lp1692
I14
as(I2
I2
tp1693
(lp1694
I18
as(I1
I0
tp1695
(lp1696
I7
as(I0
I3
tp1697
(lp1698
I88
as(I1
I1
tp1699
(lp1700
I46
assg199
g371
ssI16
(dp1701
g165
(dp1702
(I0
I1
tp1703
(lp1704
I91
as(I1
I2
tp1705
(lp1706
I80
as(I3
I2
tp1707
(lp1708
I2
as(I0
I0
tp1709
(lp1710
I42
as(I3
I3
tp1711
(lp1712
I23
as(I3
I0
tp1713
(lp1714
I17
as(I3
I1
tp1715
(lp1716
I83
as(I2
I1
tp1717
(lp1718
I46
as(I0
I2
tp1719
(lp1720
I90
as(I2
I0
tp1721
(lp1722
I12
as(I1
I3
tp1723
(lp1724
I40
as(I2
I3
tp1725
(lp1726
I66
as(I2
I2
tp1727
(lp1728
I77
as(I1
I0
tp1729
(lp1730
I28
as(I0
I3
tp1731
(lp1732
I91
as(I1
I1
tp1733
(lp1734
I32
assg199
g371
ssI20
(dp1735
g165
(dp1736
(I0
I1
tp1737
(lp1738
I53
as(I1
I2
tp1739
(lp1740
I45
as(I3
I2
tp1741
(lp1742
I28
as(I0
I0
tp1743
(lp1744
I43
as(I3
I3
tp1745
(lp1746
I39
as(I3
I0
tp1747
(lp1748
I6
as(I3
I1
tp1749
(lp1750
I34
as(I2
I1
tp1751
(lp1752
I78
as(I0
I2
tp1753
(lp1754
I17
as(I2
I0
tp1755
(lp1756
I17
as(I1
I3
tp1757
(lp1758
I19
as(I2
I3
tp1759
(lp1760
I13
as(I2
I2
tp1761
(lp1762
I62
as(I1
I0
tp1763
(lp1764
I40
as(I0
I3
tp1765
(lp1766
I18
as(I1
I1
tp1767
(lp1768
I56
assg199
g371
ssI21
(dp1769
g165
(dp1770
(I0
I1
tp1771
(lp1772
I63
as(I1
I2
tp1773
(lp1774
I68
as(I3
I2
tp1775
(lp1776
I84
as(I0
I0
tp1777
(lp1778
I47
as(I3
I3
tp1779
(lp1780
I98
as(I3
I0
tp1781
(lp1782
I52
as(I3
I1
tp1783
(lp1784
I84
as(I2
I1
tp1785
(lp1786
I2
as(I0
I2
tp1787
(lp1788
I27
as(I2
I0
tp1789
(lp1790
I3
as(I1
I3
tp1791
(lp1792
I69
as(I2
I3
tp1793
(lp1794
I13
as(I2
I2
tp1795
(lp1796
I6
as(I1
I0
tp1797
(lp1798
I62
as(I0
I3
tp1799
(lp1800
I83
as(I1
I1
tp1801
(lp1802
I59
assg199
g371
ssI22
(dp1803
g165
(dp1804
(I0
I1
tp1805
(lp1806
I5
as(I1
I2
tp1807
(lp1808
I45
as(I3
I2
tp1809
(lp1810
I59
as(I0
I0
tp1811
(lp1812
I61
as(I3
I3
tp1813
(lp1814
I95
as(I3
I0
tp1815
(lp1816
I95
as(I3
I1
tp1817
(lp1818
I43
as(I2
I1
tp1819
(lp1820
I13
as(I0
I2
tp1821
(lp1822
I62
as(I2
I0
tp1823
(lp1824
I3
as(I1
I3
tp1825
(lp1826
I50
as(I2
I3
tp1827
(lp1828
I88
as(I2
I2
tp1829
(lp1830
I83
as(I1
I0
tp1831
(lp1832
I41
as(I0
I3
tp1833
(lp1834
I28
as(I1
I1
tp1835
(lp1836
I90
assg199
g371
ssI26
(dp1837
g165
(dp1838
(I0
I1
tp1839
(lp1840
I79
as(I1
I2
tp1841
(lp1842
I79
as(I3
I2
tp1843
(lp1844
I52
as(I0
I0
tp1845
(lp1846
I60
as(I3
I3
tp1847
(lp1848
I4
as(I3
I0
tp1849
(lp1850
I86
as(I3
I1
tp1851
(lp1852
I59
as(I2
I1
tp1853
(lp1854
I77
as(I0
I2
tp1855
(lp1856
I60
as(I2
I0
tp1857
(lp1858
I47
as(I1
I3
tp1859
(lp1860
I16
as(I2
I3
tp1861
(lp1862
I97
as(I2
I2
tp1863
(lp1864
I4
as(I1
I0
tp1865
(lp1866
I39
as(I0
I3
tp1867
(lp1868
I33
as(I1
I1
tp1869
(lp1870
I98
assg199
g371
ssI29
(dp1871
g165
(dp1872
(I0
I1
tp1873
(lp1874
I44
as(I1
I2
tp1875
(lp1876
I63
as(I3
I2
tp1877
(lp1878
I57
as(I0
I0
tp1879
(lp1880
I49
as(I3
I3
tp1881
(lp1882
I40
as(I3
I0
tp1883
(lp1884
I33
as(I3
I1
tp1885
(lp1886
I27
as(I2
I1
tp1887
(lp1888
I33
as(I0
I2
tp1889
(lp1890
I59
as(I2
I0
tp1891
(lp1892
I32
as(I1
I3
tp1893
(lp1894
I46
as(I2
I3
tp1895
(lp1896
I85
as(I2
I2
tp1897
(lp1898
I6
as(I1
I0
tp1899
(lp1900
I43
as(I0
I3
tp1901
(lp1902
I90
as(I1
I1
tp1903
(lp1904
I6
assg199
g371
sssI4
(dp1905
I38
(dp1906
g165
(dp1907
(I0
I1
tp1908
(lp1909
I97
as(I1
I2
tp1910
(lp1911
I27
as(I3
I2
tp1912
(lp1913
I91
as(I0
I0
tp1914
(lp1915
I51
as(I3
I3
tp1916
(lp1917
I77
as(I3
I0
tp1918
(lp1919
I89
as(I3
I1
tp1920
(lp1921
I77
as(I2
I1
tp1922
(lp1923
I82
as(I0
I2
tp1924
(lp1925
I72
as(I2
I0
tp1926
(lp1927
I90
as(I1
I3
tp1928
(lp1929
I76
as(I2
I3
tp1930
(lp1931
I47
as(I2
I2
tp1932
(lp1933
I25
as(I1
I0
tp1934
(lp1935
I76
as(I0
I3
tp1936
(lp1937
I45
as(I1
I1
tp1938
(lp1939
I58
assg199
g371
ssI41
(dp1940
g165
(dp1941
(I0
I1
tp1942
(lp1943
I56
as(I1
I2
tp1944
(lp1945
I82
as(I3
I2
tp1946
(lp1947
I52
as(I0
I0
tp1948
(lp1949
I25
as(I3
I3
tp1950
(lp1951
I55
as(I3
I0
tp1952
(lp1953
I38
as(I3
I1
tp1954
(lp1955
I89
as(I2
I1
tp1956
(lp1957
I86
as(I0
I2
tp1958
(lp1959
I71
as(I2
I0
tp1960
(lp1961
I15
as(I1
I3
tp1962
(lp1963
I13
as(I2
I3
tp1964
(lp1965
I95
as(I2
I2
tp1966
(lp1967
I31
as(I1
I0
tp1968
(lp1969
I44
as(I0
I3
tp1970
(lp1971
I37
as(I1
I1
tp1972
(lp1973
I88
assg199
g200
ssI10
(dp1974
g165
(dp1975
(I0
I1
tp1976
(lp1977
I8
as(I1
I2
tp1978
(lp1979
I49
as(I3
I2
tp1980
(lp1981
I76
as(I0
I0
tp1982
(lp1983
I43
as(I3
I3
tp1984
(lp1985
I49
as(I3
I0
tp1986
(lp1987
I100
as(I3
I1
tp1988
(lp1989
I48
as(I2
I1
tp1990
(lp1991
I33
as(I0
I2
tp1992
(lp1993
I11
as(I2
I0
tp1994
(lp1995
I31
as(I1
I3
tp1996
(lp1997
I65
as(I2
I3
tp1998
(lp1999
I90
as(I2
I2
tp2000
(lp2001
I38
as(I1
I0
tp2002
(lp2003
I86
as(I0
I3
tp2004
(lp2005
I48
as(I1
I1
tp2006
(lp2007
I92
assg199
g371
ssI44
(dp2008
g165
(dp2009
(I0
I1
tp2010
(lp2011
I88
as(I1
I2
tp2012
(lp2013
I65
as(I3
I2
tp2014
(lp2015
I9
as(I0
I0
tp2016
(lp2017
I6
as(I3
I3
tp2018
(lp2019
I12
as(I3
I0
tp2020
(lp2021
I57
as(I3
I1
tp2022
(lp2023
I28
as(I2
I1
tp2024
(lp2025
I6
as(I0
I2
tp2026
(lp2027
I34
as(I2
I0
tp2028
(lp2029
I57
as(I1
I3
tp2030
(lp2031
I80
as(I2
I3
tp2032
(lp2033
I20
as(I2
I2
tp2034
(lp2035
I53
as(I1
I0
tp2036
(lp2037
I99
as(I0
I3
tp2038
(lp2039
I88
as(I1
I1
tp2040
(lp2041
I30
assg199
g371
ssI46
(dp2042
g165
(dp2043
(I0
I1
tp2044
(lp2045
I81
as(I1
I2
tp2046
(lp2047
I67
as(I3
I2
tp2048
(lp2049
I50
as(I0
I0
tp2050
(lp2051
I92
as(I3
I3
tp2052
(lp2053
I2
as(I3
I0
tp2054
(lp2055
I75
as(I3
I1
tp2056
(lp2057
I91
as(I2
I1
tp2058
(lp2059
I70
as(I0
I2
tp2060
(lp2061
I38
as(I2
I0
tp2062
(lp2063
I34
as(I1
I3
tp2064
(lp2065
I65
as(I2
I3
tp2066
(lp2067
I60
as(I2
I2
tp2068
(lp2069
I87
as(I1
I0
tp2070
(lp2071
I15
as(I0
I3
tp2072
(lp2073
I18
as(I1
I1
tp2074
(lp2075
I74
assg199
g200
ssI29
(dp2076
g165
(dp2077
(I0
I1
tp2078
(lp2079
I35
as(I1
I2
tp2080
(lp2081
I48
as(I3
I2
tp2082
(lp2083
I58
as(I0
I0
tp2084
(lp2085
I14
as(I3
I3
tp2086
(lp2087
I6
as(I3
I0
tp2088
(lp2089
I27
as(I3
I1
tp2090
(lp2091
I79
as(I2
I1
tp2092
(lp2093
I4
as(I0
I2
tp2094
(lp2095
I74
as(I2
I0
tp2096
(lp2097
I93
as(I1
I3
tp2098
(lp2099
I59
as(I2
I3
tp2100
(lp2101
I19
as(I2
I2
tp2102
(lp2103
I51
as(I1
I0
tp2104
(lp2105
I7
as(I0
I3
tp2106
(lp2107
I68
as(I1
I1
tp2108
(lp2109
I28
assg199
g371
ssI18
(dp2110
g165
(dp2111
(I0
I1
tp2112
(lp2113
I96
as(I1
I2
tp2114
(lp2115
I8
as(I3
I2
tp2116
(lp2117
I18
as(I0
I0
tp2118
(lp2119
I95
as(I3
I3
tp2120
(lp2121
I89
as(I3
I0
tp2122
(lp2123
I86
as(I3
I1
tp2124
(lp2125
I13
as(I2
I1
tp2126
(lp2127
I89
as(I0
I2
tp2128
(lp2129
I60
as(I2
I0
tp2130
(lp2131
I66
as(I1
I3
tp2132
(lp2133
I12
as(I2
I3
tp2134
(lp2135
I43
as(I2
I2
tp2136
(lp2137
I69
as(I1
I0
tp2138
(lp2139
I7
as(I0
I3
tp2140
(lp2141
I75
as(I1
I1
tp2142
(lp2143
I24
assg199
g371
ssI27
(dp2144
g165
(dp2145
(I0
I1
tp2146
(lp2147
I1
as(I1
I2
tp2148
(lp2149
I49
as(I3
I2
tp2150
(lp2151
I84
as(I0
I0
tp2152
(lp2153
I34
as(I3
I3
tp2154
(lp2155
I89
as(I3
I0
tp2156
(lp2157
I86
as(I3
I1
tp2158
(lp2159
I75
as(I2
I1
tp2160
(lp2161
I72
as(I0
I2
tp2162
(lp2163
I32
as(I2
I0
tp2164
(lp2165
I4
as(I1
I3
tp2166
(lp2167
I22
as(I2
I3
tp2168
(lp2169
I49
as(I2
I2
tp2170
(lp2171
I62
as(I1
I0
tp2172
(lp2173
I36
as(I0
I3
tp2174
(lp2175
I76
as(I1
I1
tp2176
(lp2177
I41
assg199
g371
ssI42
(dp2178
g165
(dp2179
(I0
I1
tp2180
(lp2181
I82
as(I1
I2
tp2182
(lp2183
I10
as(I3
I2
tp2184
(lp2185
I37
as(I0
I0
tp2186
(lp2187
I66
as(I3
I3
tp2188
(lp2189
I55
as(I3
I0
tp2190
(lp2191
I95
as(I3
I1
tp2192
(lp2193
I68
as(I2
I1
tp2194
(lp2195
I66
as(I0
I2
tp2196
(lp2197
I72
as(I2
I0
tp2198
(lp2199
I55
as(I1
I3
tp2200
(lp2201
I63
as(I2
I3
tp2202
(lp2203
I61
as(I2
I2
tp2204
(lp2205
I45
as(I1
I0
tp2206
(lp2207
I37
as(I0
I3
tp2208
(lp2209
I38
as(I1
I1
tp2210
(lp2211
I5
assg199
g371
sssI5
(dp2212
I6
(dp2213
g165
(dp2214
(I0
I1
tp2215
(lp2216
I14
as(I1
I2
tp2217
(lp2218
I34
as(I3
I2
tp2219
(lp2220
I4
as(I0
I0
tp2221
(lp2222
I84
as(I3
I3
tp2223
(lp2224
I4
as(I3
I0
tp2225
(lp2226
I55
as(I3
I1
tp2227
(lp2228
I84
as(I2
I1
tp2229
(lp2230
I26
as(I0
I2
tp2231
(lp2232
I52
as(I2
I0
tp2233
(lp2234
I78
as(I1
I3
tp2235
(lp2236
I58
as(I2
I3
tp2237
(lp2238
I9
as(I2
I2
tp2239
(lp2240
I94
as(I1
I0
tp2241
(lp2242
I8
as(I0
I3
tp2243
(lp2244
I65
as(I1
I1
tp2245
(lp2246
I30
assg199
g371
ssI41
(dp2247
g165
(dp2248
(I0
I1
tp2249
(lp2250
I41
as(I1
I2
tp2251
(lp2252
I86
as(I3
I2
tp2253
(lp2254
I8
as(I0
I0
tp2255
(lp2256
I22
as(I3
I3
tp2257
(lp2258
I53
as(I3
I0
tp2259
(lp2260
I62
as(I3
I1
tp2261
(lp2262
I7
as(I2
I1
tp2263
(lp2264
I17
as(I0
I2
tp2265
(lp2266
I10
as(I2
I0
tp2267
(lp2268
I40
as(I1
I3
tp2269
(lp2270
I12
as(I2
I3
tp2271
(lp2272
I98
as(I2
I2
tp2273
(lp2274
I94
as(I1
I0
tp2275
(lp2276
I87
as(I0
I3
tp2277
(lp2278
I23
as(I1
I1
tp2279
(lp2280
I18
assg199
g200
ssI42
(dp2281
g165
(dp2282
(I0
I1
tp2283
(lp2284
I29
as(I1
I2
tp2285
(lp2286
I96
as(I3
I2
tp2287
(lp2288
I8
as(I0
I0
tp2289
(lp2290
I30
as(I3
I3
tp2291
(lp2292
I28
as(I3
I0
tp2293
(lp2294
I77
as(I3
I1
tp2295
(lp2296
I86
as(I2
I1
tp2297
(lp2298
I45
as(I0
I2
tp2299
(lp2300
I95
as(I2
I0
tp2301
(lp2302
I2
as(I1
I3
tp2303
(lp2304
I53
as(I2
I3
tp2305
(lp2306
I21
as(I2
I2
tp2307
(lp2308
I14
as(I1
I0
tp2309
(lp2310
I79
as(I0
I3
tp2311
(lp2312
I2
as(I1
I1
tp2313
(lp2314
I14
assg199
g200
ssI11
(dp2315
g165
(dp2316
(I0
I1
tp2317
(lp2318
I27
as(I1
I2
tp2319
(lp2320
I32
as(I3
I2
tp2321
(lp2322
I30
as(I0
I0
tp2323
(lp2324
I91
as(I3
I3
tp2325
(lp2326
I94
as(I3
I0
tp2327
(lp2328
I93
as(I3
I1
tp2329
(lp2330
I8
as(I2
I1
tp2331
(lp2332
I19
as(I0
I2
tp2333
(lp2334
I53
as(I2
I0
tp2335
(lp2336
I63
as(I1
I3
tp2337
(lp2338
I44
as(I2
I3
tp2339
(lp2340
I76
as(I2
I2
tp2341
(lp2342
I81
as(I1
I0
tp2343
(lp2344
I73
as(I0
I3
tp2345
(lp2346
I3
as(I1
I1
tp2347
(lp2348
I2
assg199
g200
ssI14
(dp2349
g165
(dp2350
(I0
I1
tp2351
(lp2352
I14
as(I1
I2
tp2353
(lp2354
I28
as(I3
I2
tp2355
(lp2356
I4
as(I0
I0
tp2357
(lp2358
I10
as(I3
I3
tp2359
(lp2360
I2
as(I3
I0
tp2361
(lp2362
I4
as(I3
I1
tp2363
(lp2364
I9
as(I2
I1
tp2365
(lp2366
I27
as(I0
I2
tp2367
(lp2368
I24
as(I2
I0
tp2369
(lp2370
I50
as(I1
I3
tp2371
(lp2372
I36
as(I2
I3
tp2373
(lp2374
I88
as(I2
I2
tp2375
(lp2376
I36
as(I1
I0
tp2377
(lp2378
I76
as(I0
I3
tp2379
(lp2380
I5
as(I1
I1
tp2381
(lp2382
I100
assg199
g200
ssI15
(dp2383
g165
(dp2384
(I0
I1
tp2385
(lp2386
I68
as(I1
I2
tp2387
(lp2388
I60
as(I3
I2
tp2389
(lp2390
I3
as(I0
I0
tp2391
(lp2392
I96
as(I3
I3
tp2393
(lp2394
I33
as(I3
I0
tp2395
(lp2396
I92
as(I3
I1
tp2397
(lp2398
I3
as(I2
I1
tp2399
(lp2400
I41
as(I0
I2
tp2401
(lp2402
I77
as(I2
I0
tp2403
(lp2404
I89
as(I1
I3
tp2405
(lp2406
I94
as(I2
I3
tp2407
(lp2408
I33
as(I2
I2
tp2409
(lp2410
I10
as(I1
I0
tp2411
(lp2412
I66
as(I0
I3
tp2413
(lp2414
I56
as(I1
I1
tp2415
(lp2416
I71
assg199
g200
ssI48
(dp2417
g165
(dp2418
(I0
I1
tp2419
(lp2420
I27
as(I1
I2
tp2421
(lp2422
I52
as(I3
I2
tp2423
(lp2424
I90
as(I0
I0
tp2425
(lp2426
I34
as(I3
I3
tp2427
(lp2428
I10
as(I3
I0
tp2429
(lp2430
I63
as(I3
I1
tp2431
(lp2432
I33
as(I2
I1
tp2433
(lp2434
I28
as(I0
I2
tp2435
(lp2436
I88
as(I2
I0
tp2437
(lp2438
I3
as(I1
I3
tp2439
(lp2440
I58
as(I2
I3
tp2441
(lp2442
I75
as(I2
I2
tp2443
(lp2444
I73
as(I1
I0
tp2445
(lp2446
I77
as(I0
I3
tp2447
(lp2448
I64
as(I1
I1
tp2449
(lp2450
I72
assg199
g200
ssI17
(dp2451
g165
(dp2452
(I0
I1
tp2453
(lp2454
I6
as(I1
I2
tp2455
(lp2456
I41
as(I3
I2
tp2457
(lp2458
I50
as(I0
I0
tp2459
(lp2460
I23
as(I3
I3
tp2461
(lp2462
I43
as(I3
I0
tp2463
(lp2464
I87
as(I3
I1
tp2465
(lp2466
I40
as(I2
I1
tp2467
(lp2468
I57
as(I0
I2
tp2469
(lp2470
I17
as(I2
I0
tp2471
(lp2472
I24
as(I1
I3
tp2473
(lp2474
I17
as(I2
I3
tp2475
(lp2476
I71
as(I2
I2
tp2477
(lp2478
I6
as(I1
I0
tp2479
(lp2480
I72
as(I0
I3
tp2481
(lp2482
I15
as(I1
I1
tp2483
(lp2484
I53
assg199
g200
ssI19
(dp2485
g165
(dp2486
(I0
I1
tp2487
(lp2488
I12
as(I1
I2
tp2489
(lp2490
I82
as(I3
I2
tp2491
(lp2492
I86
as(I0
I0
tp2493
(lp2494
I52
as(I3
I3
tp2495
(lp2496
I9
as(I3
I0
tp2497
(lp2498
I24
as(I3
I1
tp2499
(lp2500
I8
as(I2
I1
tp2501
(lp2502
I98
as(I0
I2
tp2503
(lp2504
I71
as(I2
I0
tp2505
(lp2506
I95
as(I1
I3
tp2507
(lp2508
I71
as(I2
I3
tp2509
(lp2510
I20
as(I2
I2
tp2511
(lp2512
I76
as(I1
I0
tp2513
(lp2514
I76
as(I0
I3
tp2515
(lp2516
I54
as(I1
I1
tp2517
(lp2518
I21
assg199
g371
ssI28
(dp2519
g165
(dp2520
(I0
I1
tp2521
(lp2522
I92
as(I1
I2
tp2523
(lp2524
I64
as(I3
I2
tp2525
(lp2526
I83
as(I0
I0
tp2527
(lp2528
I90
as(I3
I3
tp2529
(lp2530
I90
as(I3
I0
tp2531
(lp2532
I2
as(I3
I1
tp2533
(lp2534
I36
as(I2
I1
tp2535
(lp2536
I46
as(I0
I2
tp2537
(lp2538
I39
as(I2
I0
tp2539
(lp2540
I79
as(I1
I3
tp2541
(lp2542
I77
as(I2
I3
tp2543
(lp2544
I65
as(I2
I2
tp2545
(lp2546
I35
as(I1
I0
tp2547
(lp2548
I79
as(I0
I3
tp2549
(lp2550
I33
as(I1
I1
tp2551
(lp2552
I42
assg199
g200
sssI6
(dp2553
I0
g269
sI1
g747
sI35
(dp2554
g165
(dp2555
(I0
I1
tp2556
(lp2557
I78
as(I1
I2
tp2558
(lp2559
I86
as(I3
I2
tp2560
(lp2561
I88
as(I0
I0
tp2562
(lp2563
I97
as(I3
I3
tp2564
(lp2565
I61
as(I3
I0
tp2566
(lp2567
I67
as(I3
I1
tp2568
(lp2569
I52
as(I2
I1
tp2570
(lp2571
I56
as(I0
I2
tp2572
(lp2573
I82
as(I2
I0
tp2574
(lp2575
I92
as(I1
I3
tp2576
(lp2577
I90
as(I2
I3
tp2578
(lp2579
I68
as(I2
I2
tp2580
(lp2581
I64
as(I1
I0
tp2582
(lp2583
I7
as(I0
I3
tp2584
(lp2585
I46
as(I1
I1
tp2586
(lp2587
I70
assg199
g200
ssI5
g2213
sI38
(dp2588
g165
(dp2589
(I0
I1
tp2590
(lp2591
I93
as(I1
I2
tp2592
(lp2593
I47
as(I3
I2
tp2594
(lp2595
I46
as(I0
I0
tp2596
(lp2597
I46
as(I3
I3
tp2598
(lp2599
I59
as(I3
I0
tp2600
(lp2601
I94
as(I3
I1
tp2602
(lp2603
I94
as(I2
I1
tp2604
(lp2605
I86
as(I0
I2
tp2606
(lp2607
I5
as(I2
I0
tp2608
(lp2609
I85
as(I1
I3
tp2610
(lp2611
I78
as(I2
I3
tp2612
(lp2613
I68
as(I2
I2
tp2614
(lp2615
I1
as(I1
I0
tp2616
(lp2617
I66
as(I0
I3
tp2618
(lp2619
I18
as(I1
I1
tp2620
(lp2621
I58
assg199
g200
ssI39
(dp2622
g165
(dp2623
(I0
I1
tp2624
(lp2625
I4
as(I1
I2
tp2626
(lp2627
I36
as(I3
I2
tp2628
(lp2629
I66
as(I0
I0
tp2630
(lp2631
I53
as(I3
I3
tp2632
(lp2633
I93
as(I3
I0
tp2634
(lp2635
I53
as(I3
I1
tp2636
(lp2637
I6
as(I2
I1
tp2638
(lp2639
I77
as(I0
I2
tp2640
(lp2641
I15
as(I2
I0
tp2642
(lp2643
I22
as(I1
I3
tp2644
(lp2645
I91
as(I2
I3
tp2646
(lp2647
I74
as(I2
I2
tp2648
(lp2649
I89
as(I1
I0
tp2650
(lp2651
I73
as(I0
I3
tp2652
(lp2653
I64
as(I1
I1
tp2654
(lp2655
I1
assg199
g371
ssI40
(dp2656
g165
(dp2657
(I0
I1
tp2658
(lp2659
I9
as(I1
I2
tp2660
(lp2661
I42
as(I3
I2
tp2662
(lp2663
I83
as(I0
I0
tp2664
(lp2665
I10
as(I3
I3
tp2666
(lp2667
I6
as(I3
I0
tp2668
(lp2669
I55
as(I3
I1
tp2670
(lp2671
I81
as(I2
I1
tp2672
(lp2673
I74
as(I0
I2
tp2674
(lp2675
I36
as(I2
I0
tp2676
(lp2677
I53
as(I1
I3
tp2678
(lp2679
I69
as(I2
I3
tp2680
(lp2681
I62
as(I2
I2
tp2682
(lp2683
I22
as(I1
I0
tp2684
(lp2685
I75
as(I0
I3
tp2686
(lp2687
I25
as(I1
I1
tp2688
(lp2689
I41
assg199
g371
ssI9
(dp2690
g165
(dp2691
(I0
I1
tp2692
(lp2693
I81
as(I1
I2
tp2694
(lp2695
I74
as(I3
I2
tp2696
(lp2697
I40
as(I0
I0
tp2698
(lp2699
I61
as(I3
I3
tp2700
(lp2701
I33
as(I3
I0
tp2702
(lp2703
I82
as(I3
I1
tp2704
(lp2705
I75
as(I2
I1
tp2706
(lp2707
I98
as(I0
I2
tp2708
(lp2709
I77
as(I2
I0
tp2710
(lp2711
I19
as(I1
I3
tp2712
(lp2713
I11
as(I2
I3
tp2714
(lp2715
I72
as(I2
I2
tp2716
(lp2717
I59
as(I1
I0
tp2718
(lp2719
I4
as(I0
I3
tp2720
(lp2721
I92
as(I1
I1
tp2722
(lp2723
I56
assg199
g200
ssI15
(dp2724
g165
(dp2725
(I0
I1
tp2726
(lp2727
I15
as(I1
I2
tp2728
(lp2729
I22
as(I3
I2
tp2730
(lp2731
I83
as(I0
I0
tp2732
(lp2733
I60
as(I3
I3
tp2734
(lp2735
I21
as(I3
I0
tp2736
(lp2737
I55
as(I3
I1
tp2738
(lp2739
I69
as(I2
I1
tp2740
(lp2741
I75
as(I0
I2
tp2742
(lp2743
I50
as(I2
I0
tp2744
(lp2745
I48
as(I1
I3
tp2746
(lp2747
I54
as(I2
I3
tp2748
(lp2749
I97
as(I2
I2
tp2750
(lp2751
I86
as(I1
I0
tp2752
(lp2753
I12
as(I0
I3
tp2754
(lp2755
I28
as(I1
I1
tp2756
(lp2757
I76
assg199
g371
ssI48
(dp2758
g165
(dp2759
(I0
I1
tp2760
(lp2761
I66
as(I1
I2
tp2762
(lp2763
I62
as(I3
I2
tp2764
(lp2765
I41
as(I0
I0
tp2766
(lp2767
I9
as(I3
I3
tp2768
(lp2769
I28
as(I3
I0
tp2770
(lp2771
I65
as(I3
I1
tp2772
(lp2773
I46
as(I2
I1
tp2774
(lp2775
I8
as(I0
I2
tp2776
(lp2777
I66
as(I2
I0
tp2778
(lp2779
I33
as(I1
I3
tp2780
(lp2781
I98
as(I2
I3
tp2782
(lp2783
I74
as(I2
I2
tp2784
(lp2785
I23
as(I1
I0
tp2786
(lp2787
I79
as(I0
I3
tp2788
(lp2789
I42
as(I1
I1
tp2790
(lp2791
I32
assg199
g371
ssI20
(dp2792
g165
(dp2793
(I0
I1
tp2794
(lp2795
I49
as(I1
I2
tp2796
(lp2797
I65
as(I3
I2
tp2798
(lp2799
I70
as(I0
I0
tp2800
(lp2801
I8
as(I3
I3
tp2802
(lp2803
I57
as(I3
I0
tp2804
(lp2805
I24
as(I3
I1
tp2806
(lp2807
I21
as(I2
I1
tp2808
(lp2809
I46
as(I0
I2
tp2810
(lp2811
I65
as(I2
I0
tp2812
(lp2813
I42
as(I1
I3
tp2814
(lp2815
I89
as(I2
I3
tp2816
(lp2817
I18
as(I2
I2
tp2818
(lp2819
I45
as(I1
I0
tp2820
(lp2821
I30
as(I0
I3
tp2822
(lp2823
I74
as(I1
I1
tp2824
(lp2825
I45
assg199
g200
ssI41
(dp2826
g165
(dp2827
(I0
I1
tp2828
(lp2829
I80
as(I1
I2
tp2830
(lp2831
I90
as(I3
I2
tp2832
(lp2833
I60
as(I0
I0
tp2834
(lp2835
I14
as(I3
I3
tp2836
(lp2837
I26
as(I3
I0
tp2838
(lp2839
I39
as(I3
I1
tp2840
(lp2841
I1
as(I2
I1
tp2842
(lp2843
I95
as(I0
I2
tp2844
(lp2845
I9
as(I2
I0
tp2846
(lp2847
I82
as(I1
I3
tp2848
(lp2849
I18
as(I2
I3
tp2850
(lp2851
I40
as(I2
I2
tp2852
(lp2853
I24
as(I1
I0
tp2854
(lp2855
I68
as(I0
I3
tp2856
(lp2857
I43
as(I1
I1
tp2858
(lp2859
I29
assg199
g371
ssI28
(dp2860
g165
(dp2861
(I0
I1
tp2862
(lp2863
I15
as(I1
I2
tp2864
(lp2865
I85
as(I3
I2
tp2866
(lp2867
I64
as(I0
I0
tp2868
(lp2869
I17
as(I3
I3
tp2870
(lp2871
I79
as(I3
I0
tp2872
(lp2873
I6
as(I3
I1
tp2874
(lp2875
I79
as(I2
I1
tp2876
(lp2877
I45
as(I0
I2
tp2878
(lp2879
I9
as(I2
I0
tp2880
(lp2881
I28
as(I1
I3
tp2882
(lp2883
I26
as(I2
I3
tp2884
(lp2885
I43
as(I2
I2
tp2886
(lp2887
I10
as(I1
I0
tp2888
(lp2889
I59
as(I0
I3
tp2890
(lp2891
I25
as(I1
I1
tp2892
(lp2893
I66
assg199
g200
ssI30
(dp2894
g165
(dp2895
(I0
I1
tp2896
(lp2897
I59
as(I1
I2
tp2898
(lp2899
I62
as(I3
I2
tp2900
(lp2901
I14
as(I0
I0
tp2902
(lp2903
I38
as(I3
I3
tp2904
(lp2905
I76
as(I3
I0
tp2906
(lp2907
I46
as(I3
I1
tp2908
(lp2909
I33
as(I2
I1
tp2910
(lp2911
I93
as(I0
I2
tp2912
(lp2913
I27
as(I2
I0
tp2914
(lp2915
I35
as(I1
I3
tp2916
(lp2917
I86
as(I2
I3
tp2918
(lp2919
I90
as(I2
I2
tp2920
(lp2921
I88
as(I1
I0
tp2922
(lp2923
I29
as(I0
I3
tp2924
(lp2925
I77
as(I1
I1
tp2926
(lp2927
I21
assg199
g200
sssI7
(dp2928
I0
g303
sI33
(dp2929
g165
(dp2930
(I0
I1
tp2931
(lp2932
I81
as(I1
I2
tp2933
(lp2934
I90
as(I3
I2
tp2935
(lp2936
I67
as(I0
I0
tp2937
(lp2938
I89
as(I3
I3
tp2939
(lp2940
I32
as(I3
I0
tp2941
(lp2942
I18
as(I3
I1
tp2943
(lp2944
I93
as(I2
I1
tp2945
(lp2946
I51
as(I0
I2
tp2947
(lp2948
I66
as(I2
I0
tp2949
(lp2950
I10
as(I1
I3
tp2951
(lp2952
I84
as(I2
I3
tp2953
(lp2954
I95
as(I2
I2
tp2955
(lp2956
I15
as(I1
I0
tp2957
(lp2958
I62
as(I0
I3
tp2959
(lp2960
I77
as(I1
I1
tp2961
(lp2962
I82
assg199
g200
ssI37
(dp2963
g165
(dp2964
(I0
I1
tp2965
(lp2966
I5
as(I1
I2
tp2967
(lp2968
I31
as(I3
I2
tp2969
(lp2970
I59
as(I0
I0
tp2971
(lp2972
I41
as(I3
I3
tp2973
(lp2974
I54
as(I3
I0
tp2975
(lp2976
I55
as(I3
I1
tp2977
(lp2978
I81
as(I2
I1
tp2979
(lp2980
I76
as(I0
I2
tp2981
(lp2982
I43
as(I2
I0
tp2983
(lp2984
I57
as(I1
I3
tp2985
(lp2986
I6
as(I2
I3
tp2987
(lp2988
I11
as(I2
I2
tp2989
(lp2990
I8
as(I1
I0
tp2991
(lp2992
I37
as(I0
I3
tp2993
(lp2994
I75
as(I1
I1
tp2995
(lp2996
I78
assg199
g200
ssI8
(dp2997
g165
(dp2998
(I0
I1
tp2999
(lp3000
I14
as(I1
I2
tp3001
(lp3002
I58
as(I3
I2
tp3003
(lp3004
I71
as(I0
I0
tp3005
(lp3006
I62
as(I3
I3
tp3007
(lp3008
I84
as(I3
I0
tp3009
(lp3010
I27
as(I3
I1
tp3011
(lp3012
I47
as(I2
I1
tp3013
(lp3014
I69
as(I0
I2
tp3015
(lp3016
I22
as(I2
I0
tp3017
(lp3018
I100
as(I1
I3
tp3019
(lp3020
I45
as(I2
I3
tp3021
(lp3022
I2
as(I2
I2
tp3023
(lp3024
I89
as(I1
I0
tp3025
(lp3026
I73
as(I0
I3
tp3027
(lp3028
I7
as(I1
I1
tp3029
(lp3030
I68
assg199
g200
ssI41
(dp3031
g165
(dp3032
(I0
I1
tp3033
(lp3034
I46
as(I1
I2
tp3035
(lp3036
I85
as(I3
I2
tp3037
(lp3038
I41
as(I0
I0
tp3039
(lp3040
I66
as(I3
I3
tp3041
(lp3042
I18
as(I3
I0
tp3043
(lp3044
I77
as(I3
I1
tp3045
(lp3046
I50
as(I2
I1
tp3047
(lp3048
I79
as(I0
I2
tp3049
(lp3050
I71
as(I2
I0
tp3051
(lp3052
I38
as(I1
I3
tp3053
(lp3054
I28
as(I2
I3
tp3055
(lp3056
I62
as(I2
I2
tp3057
(lp3058
I23
as(I1
I0
tp3059
(lp3060
I13
as(I0
I3
tp3061
(lp3062
I98
as(I1
I1
tp3063
(lp3064
I90
assg199
g200
ssI10
(dp3065
g165
(dp3066
(I0
I1
tp3067
(lp3068
I99
as(I1
I2
tp3069
(lp3070
I59
as(I3
I2
tp3071
(lp3072
I95
as(I0
I0
tp3073
(lp3074
I1
as(I3
I3
tp3075
(lp3076
I65
as(I3
I0
tp3077
(lp3078
I12
as(I3
I1
tp3079
(lp3080
I63
as(I2
I1
tp3081
(lp3082
I65
as(I0
I2
tp3083
(lp3084
I10
as(I2
I0
tp3085
(lp3086
I46
as(I1
I3
tp3087
(lp3088
I5
as(I2
I3
tp3089
(lp3090
I32
as(I2
I2
tp3091
(lp3092
I41
as(I1
I0
tp3093
(lp3094
I29
as(I0
I3
tp3095
(lp3096
I89
as(I1
I1
tp3097
(lp3098
I42
assg199
g200
ssI11
(dp3099
g165
(dp3100
(I0
I1
tp3101
(lp3102
I67
as(I1
I2
tp3103
(lp3104
I88
as(I3
I2
tp3105
(lp3106
I11
as(I0
I0
tp3107
(lp3108
I23
as(I3
I3
tp3109
(lp3110
I2
as(I3
I0
tp3111
(lp3112
I85
as(I3
I1
tp3113
(lp3114
I50
as(I2
I1
tp3115
(lp3116
I66
as(I0
I2
tp3117
(lp3118
I86
as(I2
I0
tp3119
(lp3120
I2
as(I1
I3
tp3121
(lp3122
I28
as(I2
I3
tp3123
(lp3124
I19
as(I2
I2
tp3125
(lp3126
I23
as(I1
I0
tp3127
(lp3128
I47
as(I0
I3
tp3129
(lp3130
I25
as(I1
I1
tp3131
(lp3132
I26
assg199
g200
ssI46
(dp3133
g165
(dp3134
(I0
I1
tp3135
(lp3136
I56
as(I1
I2
tp3137
(lp3138
I69
as(I3
I2
tp3139
(lp3140
I40
as(I0
I0
tp3141
(lp3142
I81
as(I3
I3
tp3143
(lp3144
I45
as(I3
I0
tp3145
(lp3146
I25
as(I3
I1
tp3147
(lp3148
I65
as(I2
I1
tp3149
(lp3150
I12
as(I0
I2
tp3151
(lp3152
I29
as(I2
I0
tp3153
(lp3154
I48
as(I1
I3
tp3155
(lp3156
I70
as(I2
I3
tp3157
(lp3158
I7
as(I2
I2
tp3159
(lp3160
I89
as(I1
I0
tp3161
(lp3162
I68
as(I0
I3
tp3163
(lp3164
I64
as(I1
I1
tp3165
(lp3166
I45
assg199
g200
ssI15
(dp3167
g165
(dp3168
(I0
I1
tp3169
(lp3170
I85
as(I1
I2
tp3171
(lp3172
I86
as(I3
I2
tp3173
(lp3174
I51
as(I0
I0
tp3175
(lp3176
I59
as(I3
I3
tp3177
(lp3178
I39
as(I3
I0
tp3179
(lp3180
I14
as(I3
I1
tp3181
(lp3182
I19
as(I2
I1
tp3183
(lp3184
I32
as(I0
I2
tp3185
(lp3186
I70
as(I2
I0
tp3187
(lp3188
I95
as(I1
I3
tp3189
(lp3190
I11
as(I2
I3
tp3191
(lp3192
I49
as(I2
I2
tp3193
(lp3194
I67
as(I1
I0
tp3195
(lp3196
I33
as(I0
I3
tp3197
(lp3198
I91
as(I1
I1
tp3199
(lp3200
I22
assg199
g200
ssI18
(dp3201
g165
(dp3202
(I0
I1
tp3203
(lp3204
I62
as(I1
I2
tp3205
(lp3206
I55
as(I3
I2
tp3207
(lp3208
I41
as(I0
I0
tp3209
(lp3210
I90
as(I3
I3
tp3211
(lp3212
I52
as(I3
I0
tp3213
(lp3214
I18
as(I3
I1
tp3215
(lp3216
I31
as(I2
I1
tp3217
(lp3218
I13
as(I0
I2
tp3219
(lp3220
I100
as(I2
I0
tp3221
(lp3222
I57
as(I1
I3
tp3223
(lp3224
I42
as(I2
I3
tp3225
(lp3226
I63
as(I2
I2
tp3227
(lp3228
I92
as(I1
I0
tp3229
(lp3230
I44
as(I0
I3
tp3231
(lp3232
I57
as(I1
I1
tp3233
(lp3234
I48
assg199
g200
ssI19
(dp3235
g165
(dp3236
(I0
I1
tp3237
(lp3238
I19
as(I1
I2
tp3239
(lp3240
I39
as(I3
I2
tp3241
(lp3242
I6
as(I0
I0
tp3243
(lp3244
I71
as(I3
I3
tp3245
(lp3246
I69
as(I3
I0
tp3247
(lp3248
I93
as(I3
I1
tp3249
(lp3250
I68
as(I2
I1
tp3251
(lp3252
I12
as(I0
I2
tp3253
(lp3254
I78
as(I2
I0
tp3255
(lp3256
I88
as(I1
I3
tp3257
(lp3258
I3
as(I2
I3
tp3259
(lp3260
I16
as(I2
I2
tp3261
(lp3262
I75
as(I1
I0
tp3263
(lp3264
I80
as(I0
I3
tp3265
(lp3266
I37
as(I1
I1
tp3267
(lp3268
I45
assg199
g200
ssI22
(dp3269
g165
(dp3270
(I0
I1
tp3271
(lp3272
I10
as(I1
I2
tp3273
(lp3274
I66
as(I3
I2
tp3275
(lp3276
I84
as(I0
I0
tp3277
(lp3278
I19
as(I3
I3
tp3279
(lp3280
I13
as(I3
I0
tp3281
(lp3282
I16
as(I3
I1
tp3283
(lp3284
I20
as(I2
I1
tp3285
(lp3286
I85
as(I0
I2
tp3287
(lp3288
I12
as(I2
I0
tp3289
(lp3290
I95
as(I1
I3
tp3291
(lp3292
I84
as(I2
I3
tp3293
(lp3294
I17
as(I2
I2
tp3295
(lp3296
I49
as(I1
I0
tp3297
(lp3298
I6
as(I0
I3
tp3299
(lp3300
I81
as(I1
I1
tp3301
(lp3302
I25
assg199
g200
ssI29
(dp3303
g165
(dp3304
(I0
I1
tp3305
(lp3306
I14
as(I1
I2
tp3307
(lp3308
I66
as(I3
I2
tp3309
(lp3310
I84
as(I0
I0
tp3311
(lp3312
I84
as(I3
I3
tp3313
(lp3314
I83
as(I3
I0
tp3315
(lp3316
I72
as(I3
I1
tp3317
(lp3318
I54
as(I2
I1
tp3319
(lp3320
I62
as(I0
I2
tp3321
(lp3322
I97
as(I2
I0
tp3323
(lp3324
I94
as(I1
I3
tp3325
(lp3326
I45
as(I2
I3
tp3327
(lp3328
I30
as(I2
I2
tp3329
(lp3330
I22
as(I1
I0
tp3331
(lp3332
I40
as(I0
I3
tp3333
(lp3334
I19
as(I1
I1
tp3335
(lp3336
I94
assg199
g200
sssI8
(dp3337
I0
g337
sI3
g1565
sI7
g2997
sI9
(dp3338
g165
(dp3339
(I0
I1
tp3340
(lp3341
I92
as(I1
I2
tp3342
(lp3343
I27
as(I3
I2
tp3344
(lp3345
I14
as(I0
I0
tp3346
(lp3347
I9
as(I3
I3
tp3348
(lp3349
I20
as(I3
I0
tp3350
(lp3351
I12
as(I3
I1
tp3352
(lp3353
I1
as(I2
I1
tp3354
(lp3355
I92
as(I0
I2
tp3356
(lp3357
I33
as(I2
I0
tp3358
(lp3359
I64
as(I1
I3
tp3360
(lp3361
I53
as(I2
I3
tp3362
(lp3363
I21
as(I2
I2
tp3364
(lp3365
I74
as(I1
I0
tp3366
(lp3367
I5
as(I0
I3
tp3368
(lp3369
I18
as(I1
I1
tp3370
(lp3371
I93
assg199
g371
ssI10
(dp3372
g165
(dp3373
(I0
I1
tp3374
(lp3375
I70
as(I1
I2
tp3376
(lp3377
I42
as(I3
I2
tp3378
(lp3379
I15
as(I0
I0
tp3380
(lp3381
I84
as(I3
I3
tp3382
(lp3383
I78
as(I3
I0
tp3384
(lp3385
I64
as(I3
I1
tp3386
(lp3387
I33
as(I2
I1
tp3388
(lp3389
I31
as(I0
I2
tp3390
(lp3391
I92
as(I2
I0
tp3392
(lp3393
I63
as(I1
I3
tp3394
(lp3395
I15
as(I2
I3
tp3396
(lp3397
I43
as(I2
I2
tp3398
(lp3399
I40
as(I1
I0
tp3400
(lp3401
I41
as(I0
I3
tp3402
(lp3403
I47
as(I1
I1
tp3404
(lp3405
I53
assg199
g371
ssI43
(dp3406
g165
(dp3407
(I0
I1
tp3408
(lp3409
I67
as(I1
I2
tp3410
(lp3411
I34
as(I3
I2
tp3412
(lp3413
I60
as(I0
I0
tp3414
(lp3415
I17
as(I3
I3
tp3416
(lp3417
I76
as(I3
I0
tp3418
(lp3419
I27
as(I3
I1
tp3420
(lp3421
I76
as(I2
I1
tp3422
(lp3423
I20
as(I0
I2
tp3424
(lp3425
I13
as(I2
I0
tp3426
(lp3427
I48
as(I1
I3
tp3428
(lp3429
I100
as(I2
I3
tp3430
(lp3431
I74
as(I2
I2
tp3432
(lp3433
I17
as(I1
I0
tp3434
(lp3435
I87
as(I0
I3
tp3436
(lp3437
I30
as(I1
I1
tp3438
(lp3439
I88
assg199
g200
ssI48
(dp3440
g165
(dp3441
(I0
I1
tp3442
(lp3443
I99
as(I1
I2
tp3444
(lp3445
I47
as(I3
I2
tp3446
(lp3447
I20
as(I0
I0
tp3448
(lp3449
I3
as(I3
I3
tp3450
(lp3451
I88
as(I3
I0
tp3452
(lp3453
I43
as(I3
I1
tp3454
(lp3455
I81
as(I2
I1
tp3456
(lp3457
I59
as(I0
I2
tp3458
(lp3459
I4
as(I2
I0
tp3460
(lp3461
I90
as(I1
I3
tp3462
(lp3463
I83
as(I2
I3
tp3464
(lp3465
I23
as(I2
I2
tp3466
(lp3467
I51
as(I1
I0
tp3468
(lp3469
I97
as(I0
I3
tp3470
(lp3471
I98
as(I1
I1
tp3472
(lp3473
I75
assg199
g200
ssI21
(dp3474
g165
(dp3475
(I0
I1
tp3476
(lp3477
I19
as(I1
I2
tp3478
(lp3479
I35
as(I3
I2
tp3480
(lp3481
I60
as(I0
I0
tp3482
(lp3483
I42
as(I3
I3
tp3484
(lp3485
I75
as(I3
I0
tp3486
(lp3487
I36
as(I3
I1
tp3488
(lp3489
I14
as(I2
I1
tp3490
(lp3491
I75
as(I0
I2
tp3492
(lp3493
I76
as(I2
I0
tp3494
(lp3495
I31
as(I1
I3
tp3496
(lp3497
I41
as(I2
I3
tp3498
(lp3499
I42
as(I2
I2
tp3500
(lp3501
I30
as(I1
I0
tp3502
(lp3503
I2
as(I0
I3
tp3504
(lp3505
I29
as(I1
I1
tp3506
(lp3507
I16
assg199
g200
ssI22
(dp3508
g165
(dp3509
(I0
I1
tp3510
(lp3511
I37
as(I1
I2
tp3512
(lp3513
I9
as(I3
I2
tp3514
(lp3515
I64
as(I0
I0
tp3516
(lp3517
I89
as(I3
I3
tp3518
(lp3519
I64
as(I3
I0
tp3520
(lp3521
I81
as(I3
I1
tp3522
(lp3523
I33
as(I2
I1
tp3524
(lp3525
I72
as(I0
I2
tp3526
(lp3527
I70
as(I2
I0
tp3528
(lp3529
I52
as(I1
I3
tp3530
(lp3531
I64
as(I2
I3
tp3532
(lp3533
I72
as(I2
I2
tp3534
(lp3535
I72
as(I1
I0
tp3536
(lp3537
I9
as(I0
I3
tp3538
(lp3539
I22
as(I1
I1
tp3540
(lp3541
I41
assg199
g371
sssI9
(dp3542
I0
g372
sI6
g2690
sI8
g3338
sI47
(dp3543
g165
(dp3544
(I0
I1
tp3545
(lp3546
I9
as(I1
I2
tp3547
(lp3548
I97
as(I3
I2
tp3549
(lp3550
I92
as(I0
I0
tp3551
(lp3552
I45
as(I3
I3
tp3553
(lp3554
I65
as(I3
I0
tp3555
(lp3556
I55
as(I3
I1
tp3557
(lp3558
I78
as(I2
I1
tp3559
(lp3560
I76
as(I0
I2
tp3561
(lp3562
I86
as(I2
I0
tp3563
(lp3564
I19
as(I1
I3
tp3565
(lp3566
I9
as(I2
I3
tp3567
(lp3568
I41
as(I2
I2
tp3569
(lp3570
I88
as(I1
I0
tp3571
(lp3572
I19
as(I0
I3
tp3573
(lp3574
I40
as(I1
I1
tp3575
(lp3576
I60
assg199
g371
ssI16
(dp3577
g165
(dp3578
(I0
I1
tp3579
(lp3580
I34
as(I1
I2
tp3581
(lp3582
I40
as(I3
I2
tp3583
(lp3584
I97
as(I0
I0
tp3585
(lp3586
I44
as(I3
I3
tp3587
(lp3588
I81
as(I3
I0
tp3589
(lp3590
I21
as(I3
I1
tp3591
(lp3592
I11
as(I2
I1
tp3593
(lp3594
I46
as(I0
I2
tp3595
(lp3596
I40
as(I2
I0
tp3597
(lp3598
I27
as(I1
I3
tp3599
(lp3600
I84
as(I2
I3
tp3601
(lp3602
I13
as(I2
I2
tp3603
(lp3604
I7
as(I1
I0
tp3605
(lp3606
I70
as(I0
I3
tp3607
(lp3608
I6
as(I1
I1
tp3609
(lp3610
I59
assg199
g371
ssI40
(dp3611
g165
(dp3612
(I0
I1
tp3613
(lp3614
I99
as(I1
I2
tp3615
(lp3616
I61
as(I3
I2
tp3617
(lp3618
I100
as(I0
I0
tp3619
(lp3620
I53
as(I3
I3
tp3621
(lp3622
I53
as(I3
I0
tp3623
(lp3624
I35
as(I3
I1
tp3625
(lp3626
I90
as(I2
I1
tp3627
(lp3628
I26
as(I0
I2
tp3629
(lp3630
I33
as(I2
I0
tp3631
(lp3632
I91
as(I1
I3
tp3633
(lp3634
I57
as(I2
I3
tp3635
(lp3636
I55
as(I2
I2
tp3637
(lp3638
I37
as(I1
I0
tp3639
(lp3640
I38
as(I0
I3
tp3641
(lp3642
I44
as(I1
I1
tp3643
(lp3644
I100
assg199
g371
ssI21
(dp3645
g165
(dp3646
(I0
I1
tp3647
(lp3648
I91
as(I1
I2
tp3649
(lp3650
I93
as(I3
I2
tp3651
(lp3652
I36
as(I0
I0
tp3653
(lp3654
I77
as(I3
I3
tp3655
(lp3656
I18
as(I3
I0
tp3657
(lp3658
I89
as(I3
I1
tp3659
(lp3660
I35
as(I2
I1
tp3661
(lp3662
I90
as(I0
I2
tp3663
(lp3664
I14
as(I2
I0
tp3665
(lp3666
I7
as(I1
I3
tp3667
(lp3668
I9
as(I2
I3
tp3669
(lp3670
I44
as(I2
I2
tp3671
(lp3672
I92
as(I1
I0
tp3673
(lp3674
I6
as(I0
I3
tp3675
(lp3676
I65
as(I1
I1
tp3677
(lp3678
I14
assg199
g371
ssI23
(dp3679
g165
(dp3680
(I0
I1
tp3681
(lp3682
I94
as(I1
I2
tp3683
(lp3684
I66
as(I3
I2
tp3685
(lp3686
I49
as(I0
I0
tp3687
(lp3688
I58
as(I3
I3
tp3689
(lp3690
I78
as(I3
I0
tp3691
(lp3692
I77
as(I3
I1
tp3693
(lp3694
I5
as(I2
I1
tp3695
(lp3696
I72
as(I0
I2
tp3697
(lp3698
I39
as(I2
I0
tp3699
(lp3700
I51
as(I1
I3
tp3701
(lp3702
I4
as(I2
I3
tp3703
(lp3704
I9
as(I2
I2
tp3705
(lp3706
I88
as(I1
I0
tp3707
(lp3708
I81
as(I0
I3
tp3709
(lp3710
I22
as(I1
I1
tp3711
(lp3712
I42
assg199
g371
ssI26
(dp3713
g165
(dp3714
(I0
I1
tp3715
(lp3716
I13
as(I1
I2
tp3717
(lp3718
I49
as(I3
I2
tp3719
(lp3720
I88
as(I0
I0
tp3721
(lp3722
I82
as(I3
I3
tp3723
(lp3724
I90
as(I3
I0
tp3725
(lp3726
I40
as(I3
I1
tp3727
(lp3728
I27
as(I2
I1
tp3729
(lp3730
I38
as(I0
I2
tp3731
(lp3732
I10
as(I2
I0
tp3733
(lp3734
I12
as(I1
I3
tp3735
(lp3736
I11
as(I2
I3
tp3737
(lp3738
I88
as(I2
I2
tp3739
(lp3740
I94
as(I1
I0
tp3741
(lp3742
I19
as(I0
I3
tp3743
(lp3744
I25
as(I1
I1
tp3745
(lp3746
I62
assg199
g371
sssI10
(dp3747
I32
(dp3748
g165
(dp3749
(I0
I1
tp3750
(lp3751
I100
as(I1
I2
tp3752
(lp3753
I45
as(I3
I2
tp3754
(lp3755
I59
as(I0
I0
tp3756
(lp3757
I51
as(I3
I3
tp3758
(lp3759
I32
as(I3
I0
tp3760
(lp3761
I39
as(I3
I1
tp3762
(lp3763
I92
as(I2
I1
tp3764
(lp3765
I96
as(I0
I2
tp3766
(lp3767
I77
as(I2
I0
tp3768
(lp3769
I84
as(I1
I3
tp3770
(lp3771
I86
as(I2
I3
tp3772
(lp3773
I15
as(I2
I2
tp3774
(lp3775
I66
as(I1
I0
tp3776
(lp3777
I89
as(I0
I3
tp3778
(lp3779
I91
as(I1
I1
tp3780
(lp3781
I31
assg199
g200
ssI4
g1974
sI38
(dp3782
g165
(dp3783
(I0
I1
tp3784
(lp3785
I44
as(I1
I2
tp3786
(lp3787
I13
as(I3
I2
tp3788
(lp3789
I11
as(I0
I0
tp3790
(lp3791
I79
as(I3
I3
tp3792
(lp3793
I6
as(I3
I0
tp3794
(lp3795
I5
as(I3
I1
tp3796
(lp3797
I4
as(I2
I1
tp3798
(lp3799
I35
as(I0
I2
tp3800
(lp3801
I66
as(I2
I0
tp3802
(lp3803
I22
as(I1
I3
tp3804
(lp3805
I91
as(I2
I3
tp3806
(lp3807
I77
as(I2
I2
tp3808
(lp3809
I82
as(I1
I0
tp3810
(lp3811
I65
as(I0
I3
tp3812
(lp3813
I63
as(I1
I1
tp3814
(lp3815
I60
assg199
g371
ssI7
g3065
sI8
g3372
sI12
(dp3816
g165
(dp3817
(I0
I1
tp3818
(lp3819
I83
as(I1
I2
tp3820
(lp3821
I42
as(I3
I2
tp3822
(lp3823
I22
as(I0
I0
tp3824
(lp3825
I29
as(I3
I3
tp3826
(lp3827
I67
as(I3
I0
tp3828
(lp3829
I45
as(I3
I1
tp3830
(lp3831
I84
as(I2
I1
tp3832
(lp3833
I72
as(I0
I2
tp3834
(lp3835
I91
as(I2
I0
tp3836
(lp3837
I97
as(I1
I3
tp3838
(lp3839
I12
as(I2
I3
tp3840
(lp3841
I9
as(I2
I2
tp3842
(lp3843
I55
as(I1
I0
tp3844
(lp3845
I22
as(I0
I3
tp3846
(lp3847
I52
as(I1
I1
tp3848
(lp3849
I45
assg199
g200
ssI11
(dp3850
g165
(dp3851
(I0
I1
tp3852
(lp3853
I58
as(I1
I2
tp3854
(lp3855
I25
as(I3
I2
tp3856
(lp3857
I35
as(I0
I0
tp3858
(lp3859
I84
as(I3
I3
tp3860
(lp3861
I38
as(I3
I0
tp3862
(lp3863
I63
as(I3
I1
tp3864
(lp3865
I42
as(I2
I1
tp3866
(lp3867
I50
as(I0
I2
tp3868
(lp3869
I2
as(I2
I0
tp3870
(lp3871
I17
as(I1
I3
tp3872
(lp3873
I85
as(I2
I3
tp3874
(lp3875
I89
as(I2
I2
tp3876
(lp3877
I5
as(I1
I0
tp3878
(lp3879
I50
as(I0
I3
tp3880
(lp3881
I24
as(I1
I1
tp3882
(lp3883
I33
assg199
g371
ssI44
(dp3884
g165
(dp3885
(I0
I1
tp3886
(lp3887
I61
as(I1
I2
tp3888
(lp3889
I23
as(I3
I2
tp3890
(lp3891
I5
as(I0
I0
tp3892
(lp3893
I6
as(I3
I3
tp3894
(lp3895
I14
as(I3
I0
tp3896
(lp3897
I72
as(I3
I1
tp3898
(lp3899
I83
as(I2
I1
tp3900
(lp3901
I76
as(I0
I2
tp3902
(lp3903
I32
as(I2
I0
tp3904
(lp3905
I45
as(I1
I3
tp3906
(lp3907
I37
as(I2
I3
tp3908
(lp3909
I53
as(I2
I2
tp3910
(lp3911
I92
as(I1
I0
tp3912
(lp3913
I80
as(I0
I3
tp3914
(lp3915
I63
as(I1
I1
tp3916
(lp3917
I4
assg199
g371
ssI13
(dp3918
g165
(dp3919
(I0
I1
tp3920
(lp3921
I36
as(I1
I2
tp3922
(lp3923
I21
as(I3
I2
tp3924
(lp3925
I66
as(I0
I0
tp3926
(lp3927
I38
as(I3
I3
tp3928
(lp3929
I38
as(I3
I0
tp3930
(lp3931
I23
as(I3
I1
tp3932
(lp3933
I9
as(I2
I1
tp3934
(lp3935
I45
as(I0
I2
tp3936
(lp3937
I43
as(I2
I0
tp3938
(lp3939
I85
as(I1
I3
tp3940
(lp3941
I16
as(I2
I3
tp3942
(lp3943
I36
as(I2
I2
tp3944
(lp3945
I15
as(I1
I0
tp3946
(lp3947
I95
as(I0
I3
tp3948
(lp3949
I94
as(I1
I1
tp3950
(lp3951
I75
assg199
g371
ssI21
(dp3952
g165
(dp3953
(I0
I1
tp3954
(lp3955
I97
as(I1
I2
tp3956
(lp3957
I10
as(I3
I2
tp3958
(lp3959
I65
as(I0
I0
tp3960
(lp3961
I64
as(I3
I3
tp3962
(lp3963
I84
as(I3
I0
tp3964
(lp3965
I26
as(I3
I1
tp3966
(lp3967
I78
as(I2
I1
tp3968
(lp3969
I98
as(I0
I2
tp3970
(lp3971
I50
as(I2
I0
tp3972
(lp3973
I34
as(I1
I3
tp3974
(lp3975
I23
as(I2
I3
tp3976
(lp3977
I72
as(I2
I2
tp3978
(lp3979
I62
as(I1
I0
tp3980
(lp3981
I82
as(I0
I3
tp3982
(lp3983
I82
as(I1
I1
tp3984
(lp3985
I92
assg199
g371
ssI25
(dp3986
g165
(dp3987
(I0
I1
tp3988
(lp3989
I30
as(I1
I2
tp3990
(lp3991
I45
as(I3
I2
tp3992
(lp3993
I54
as(I0
I0
tp3994
(lp3995
I4
as(I3
I3
tp3996
(lp3997
I32
as(I3
I0
tp3998
(lp3999
I85
as(I3
I1
tp4000
(lp4001
I49
as(I2
I1
tp4002
(lp4003
I66
as(I0
I2
tp4004
(lp4005
I38
as(I2
I0
tp4006
(lp4007
I13
as(I1
I3
tp4008
(lp4009
I75
as(I2
I3
tp4010
(lp4011
I4
as(I2
I2
tp4012
(lp4013
I5
as(I1
I0
tp4014
(lp4015
I46
as(I0
I3
tp4016
(lp4017
I19
as(I1
I1
tp4018
(lp4019
I57
assg199
g200
ssI26
(dp4020
g165
(dp4021
(I0
I1
tp4022
(lp4023
I52
as(I1
I2
tp4024
(lp4025
I74
as(I3
I2
tp4026
(lp4027
I14
as(I0
I0
tp4028
(lp4029
I66
as(I3
I3
tp4030
(lp4031
I95
as(I3
I0
tp4032
(lp4033
I78
as(I3
I1
tp4034
(lp4035
I38
as(I2
I1
tp4036
(lp4037
I42
as(I0
I2
tp4038
(lp4039
I71
as(I2
I0
tp4040
(lp4041
I88
as(I1
I3
tp4042
(lp4043
I79
as(I2
I3
tp4044
(lp4045
I88
as(I2
I2
tp4046
(lp4047
I34
as(I1
I0
tp4048
(lp4049
I54
as(I0
I3
tp4050
(lp4051
I60
as(I1
I1
tp4052
(lp4053
I41
assg199
g200
ssI31
(dp4054
g165
(dp4055
(I0
I1
tp4056
(lp4057
I50
as(I1
I2
tp4058
(lp4059
I69
as(I3
I2
tp4060
(lp4061
I53
as(I0
I0
tp4062
(lp4063
I70
as(I3
I3
tp4064
(lp4065
I77
as(I3
I0
tp4066
(lp4067
I4
as(I3
I1
tp4068
(lp4069
I72
as(I2
I1
tp4070
(lp4071
I60
as(I0
I2
tp4072
(lp4073
I29
as(I2
I0
tp4074
(lp4075
I66
as(I1
I3
tp4076
(lp4077
I58
as(I2
I3
tp4078
(lp4079
I61
as(I2
I2
tp4080
(lp4081
I73
as(I1
I0
tp4082
(lp4083
I17
as(I0
I3
tp4084
(lp4085
I72
as(I1
I1
tp4086
(lp4087
I5
assg199
g371
sssI11
(dp4088
I0
g406
sI1
g815
sI2
g1156
sI35
(dp4089
g165
(dp4090
(I0
I1
tp4091
(lp4092
I65
as(I1
I2
tp4093
(lp4094
I70
as(I3
I2
tp4095
(lp4096
I53
as(I0
I0
tp4097
(lp4098
I38
as(I3
I3
tp4099
(lp4100
I48
as(I3
I0
tp4101
(lp4102
I62
as(I3
I1
tp4103
(lp4104
I22
as(I2
I1
tp4105
(lp4106
I62
as(I0
I2
tp4107
(lp4108
I22
as(I2
I0
tp4109
(lp4110
I26
as(I1
I3
tp4111
(lp4112
I29
as(I2
I3
tp4113
(lp4114
I65
as(I2
I2
tp4115
(lp4116
I76
as(I1
I0
tp4117
(lp4118
I3
as(I0
I3
tp4119
(lp4120
I19
as(I1
I1
tp4121
(lp4122
I5
assg199
g371
ssI36
(dp4123
g165
(dp4124
(I0
I1
tp4125
(lp4126
I49
as(I1
I2
tp4127
(lp4128
I45
as(I3
I2
tp4129
(lp4130
I30
as(I0
I0
tp4131
(lp4132
I30
as(I3
I3
tp4133
(lp4134
I76
as(I3
I0
tp4135
(lp4136
I43
as(I3
I1
tp4137
(lp4138
I51
as(I2
I1
tp4139
(lp4140
I18
as(I0
I2
tp4141
(lp4142
I87
as(I2
I0
tp4143
(lp4144
I37
as(I1
I3
tp4145
(lp4146
I73
as(I2
I3
tp4147
(lp4148
I97
as(I2
I2
tp4149
(lp4150
I84
as(I1
I0
tp4151
(lp4152
I14
as(I0
I3
tp4153
(lp4154
I43
as(I1
I1
tp4155
(lp4156
I14
assg199
g371
ssI5
g2315
sI7
g3099
sI10
g3850
sI18
(dp4157
g165
(dp4158
(I0
I1
tp4159
(lp4160
I93
as(I1
I2
tp4161
(lp4162
I91
as(I3
I2
tp4163
(lp4164
I47
as(I0
I0
tp4165
(lp4166
I13
as(I3
I3
tp4167
(lp4168
I95
as(I3
I0
tp4169
(lp4170
I20
as(I3
I1
tp4171
(lp4172
I21
as(I2
I1
tp4173
(lp4174
I2
as(I0
I2
tp4175
(lp4176
I66
as(I2
I0
tp4177
(lp4178
I81
as(I1
I3
tp4179
(lp4180
I81
as(I2
I3
tp4181
(lp4182
I31
as(I2
I2
tp4183
(lp4184
I73
as(I1
I0
tp4185
(lp4186
I53
as(I0
I3
tp4187
(lp4188
I2
as(I1
I1
tp4189
(lp4190
I98
assg199
g371
ssI23
(dp4191
g165
(dp4192
(I0
I1
tp4193
(lp4194
I57
as(I1
I2
tp4195
(lp4196
I42
as(I3
I2
tp4197
(lp4198
I65
as(I0
I0
tp4199
(lp4200
I23
as(I3
I3
tp4201
(lp4202
I3
as(I3
I0
tp4203
(lp4204
I29
as(I3
I1
tp4205
(lp4206
I70
as(I2
I1
tp4207
(lp4208
I24
as(I0
I2
tp4209
(lp4210
I37
as(I2
I0
tp4211
(lp4212
I35
as(I1
I3
tp4213
(lp4214
I19
as(I2
I3
tp4215
(lp4216
I85
as(I2
I2
tp4217
(lp4218
I18
as(I1
I0
tp4219
(lp4220
I31
as(I0
I3
tp4221
(lp4222
I29
as(I1
I1
tp4223
(lp4224
I70
assg199
g371
ssI29
(dp4225
g165
(dp4226
(I0
I1
tp4227
(lp4228
I33
as(I1
I2
tp4229
(lp4230
I11
as(I3
I2
tp4231
(lp4232
I9
as(I0
I0
tp4233
(lp4234
I8
as(I3
I3
tp4235
(lp4236
I38
as(I3
I0
tp4237
(lp4238
I82
as(I3
I1
tp4239
(lp4240
I25
as(I2
I1
tp4241
(lp4242
I54
as(I0
I2
tp4243
(lp4244
I48
as(I2
I0
tp4245
(lp4246
I19
as(I1
I3
tp4247
(lp4248
I75
as(I2
I3
tp4249
(lp4250
I55
as(I2
I2
tp4251
(lp4252
I18
as(I1
I0
tp4253
(lp4254
I85
as(I0
I3
tp4255
(lp4256
I95
as(I1
I1
tp4257
(lp4258
I8
assg199
g371
sssI12
(dp4259
I0
g440
sI33
(dp4260
g165
(dp4261
(I0
I1
tp4262
(lp4263
I43
as(I1
I2
tp4264
(lp4265
I81
as(I3
I2
tp4266
(lp4267
I18
as(I0
I0
tp4268
(lp4269
I4
as(I3
I3
tp4270
(lp4271
I35
as(I3
I0
tp4272
(lp4273
I33
as(I3
I1
tp4274
(lp4275
I94
as(I2
I1
tp4276
(lp4277
I88
as(I0
I2
tp4278
(lp4279
I94
as(I2
I0
tp4280
(lp4281
I3
as(I1
I3
tp4282
(lp4283
I8
as(I2
I3
tp4284
(lp4285
I14
as(I2
I2
tp4286
(lp4287
I62
as(I1
I0
tp4288
(lp4289
I98
as(I0
I3
tp4290
(lp4291
I56
as(I1
I1
tp4292
(lp4293
I8
assg199
g371
ssI2
g1122
sI3
g1633
sI10
g3816
sI47
(dp4294
g165
(dp4295
(I0
I1
tp4296
(lp4297
I100
as(I1
I2
tp4298
(lp4299
I96
as(I3
I2
tp4300
(lp4301
I99
as(I0
I0
tp4302
(lp4303
I26
as(I3
I3
tp4304
(lp4305
I29
as(I3
I0
tp4306
(lp4307
I85
as(I3
I1
tp4308
(lp4309
I9
as(I2
I1
tp4310
(lp4311
I72
as(I0
I2
tp4312
(lp4313
I42
as(I2
I0
tp4314
(lp4315
I19
as(I1
I3
tp4316
(lp4317
I61
as(I2
I3
tp4318
(lp4319
I46
as(I2
I2
tp4320
(lp4321
I88
as(I1
I0
tp4322
(lp4323
I93
as(I0
I3
tp4324
(lp4325
I27
as(I1
I1
tp4326
(lp4327
I73
assg199
g371
ssI17
(dp4328
g165
(dp4329
(I0
I1
tp4330
(lp4331
I85
as(I1
I2
tp4332
(lp4333
I38
as(I3
I2
tp4334
(lp4335
I71
as(I0
I0
tp4336
(lp4337
I88
as(I3
I3
tp4338
(lp4339
I90
as(I3
I0
tp4340
(lp4341
I55
as(I3
I1
tp4342
(lp4343
I66
as(I2
I1
tp4344
(lp4345
I72
as(I0
I2
tp4346
(lp4347
I70
as(I2
I0
tp4348
(lp4349
I55
as(I1
I3
tp4350
(lp4351
I24
as(I2
I3
tp4352
(lp4353
I49
as(I2
I2
tp4354
(lp4355
I88
as(I1
I0
tp4356
(lp4357
I64
as(I0
I3
tp4358
(lp4359
I96
as(I1
I1
tp4360
(lp4361
I14
assg199
g371
ssI25
(dp4362
g165
(dp4363
(I0
I1
tp4364
(lp4365
I5
as(I1
I2
tp4366
(lp4367
I29
as(I3
I2
tp4368
(lp4369
I49
as(I0
I0
tp4370
(lp4371
I57
as(I3
I3
tp4372
(lp4373
I3
as(I3
I0
tp4374
(lp4375
I94
as(I3
I1
tp4376
(lp4377
I57
as(I2
I1
tp4378
(lp4379
I30
as(I0
I2
tp4380
(lp4381
I49
as(I2
I0
tp4382
(lp4383
I19
as(I1
I3
tp4384
(lp4385
I58
as(I2
I3
tp4386
(lp4387
I84
as(I2
I2
tp4388
(lp4389
I21
as(I1
I0
tp4390
(lp4391
I31
as(I0
I3
tp4392
(lp4393
I32
as(I1
I1
tp4394
(lp4395
I32
assg199
g371
ssI28
(dp4396
g165
(dp4397
(I0
I1
tp4398
(lp4399
I91
as(I1
I2
tp4400
(lp4401
I33
as(I3
I2
tp4402
(lp4403
I28
as(I0
I0
tp4404
(lp4405
I59
as(I3
I3
tp4406
(lp4407
I63
as(I3
I0
tp4408
(lp4409
I57
as(I3
I1
tp4410
(lp4411
I83
as(I2
I1
tp4412
(lp4413
I67
as(I0
I2
tp4414
(lp4415
I38
as(I2
I0
tp4416
(lp4417
I74
as(I1
I3
tp4418
(lp4419
I49
as(I2
I3
tp4420
(lp4421
I24
as(I2
I2
tp4422
(lp4423
I60
as(I1
I0
tp4424
(lp4425
I65
as(I0
I3
tp4426
(lp4427
I89
as(I1
I1
tp4428
(lp4429
I48
assg199
g200
ssI42
(dp4430
g165
(dp4431
(I0
I1
tp4432
(lp4433
I31
as(I1
I2
tp4434
(lp4435
I7
as(I3
I2
tp4436
(lp4437
I84
as(I0
I0
tp4438
(lp4439
I84
as(I3
I3
tp4440
(lp4441
I79
as(I3
I0
tp4442
(lp4443
I1
as(I3
I1
tp4444
(lp4445
I13
as(I2
I1
tp4446
(lp4447
I12
as(I0
I2
tp4448
(lp4449
I45
as(I2
I0
tp4450
(lp4451
I33
as(I1
I3
tp4452
(lp4453
I14
as(I2
I3
tp4454
(lp4455
I78
as(I2
I2
tp4456
(lp4457
I80
as(I1
I0
tp4458
(lp4459
I79
as(I0
I3
tp4460
(lp4461
I69
as(I1
I1
tp4462
(lp4463
I1
assg199
g371
sssI13
(dp4464
I2
g1224
sI35
(dp4465
g165
(dp4466
(I0
I1
tp4467
(lp4468
I42
as(I1
I2
tp4469
(lp4470
I66
as(I3
I2
tp4471
(lp4472
I18
as(I0
I0
tp4473
(lp4474
I12
as(I3
I3
tp4475
(lp4476
I68
as(I3
I0
tp4477
(lp4478
I1
as(I3
I1
tp4479
(lp4480
I33
as(I2
I1
tp4481
(lp4482
I27
as(I0
I2
tp4483
(lp4484
I59
as(I2
I0
tp4485
(lp4486
I43
as(I1
I3
tp4487
(lp4488
I54
as(I2
I3
tp4489
(lp4490
I26
as(I2
I2
tp4491
(lp4492
I5
as(I1
I0
tp4493
(lp4494
I34
as(I0
I3
tp4495
(lp4496
I59
as(I1
I1
tp4497
(lp4498
I18
assg199
g371
ssI36
(dp4499
g165
(dp4500
(I0
I1
tp4501
(lp4502
I47
as(I1
I2
tp4503
(lp4504
I19
as(I3
I2
tp4505
(lp4506
I55
as(I0
I0
tp4507
(lp4508
I45
as(I3
I3
tp4509
(lp4510
I89
as(I3
I0
tp4511
(lp4512
I6
as(I3
I1
tp4513
(lp4514
I38
as(I2
I1
tp4515
(lp4516
I38
as(I0
I2
tp4517
(lp4518
I7
as(I2
I0
tp4519
(lp4520
I24
as(I1
I3
tp4521
(lp4522
I37
as(I2
I3
tp4523
(lp4524
I70
as(I2
I2
tp4525
(lp4526
I51
as(I1
I0
tp4527
(lp4528
I45
as(I0
I3
tp4529
(lp4530
I94
as(I1
I1
tp4531
(lp4532
I33
assg199
g371
ssI41
(dp4533
g165
(dp4534
(I0
I1
tp4535
(lp4536
I44
as(I1
I2
tp4537
(lp4538
I16
as(I3
I2
tp4539
(lp4540
I14
as(I0
I0
tp4541
(lp4542
I98
as(I3
I3
tp4543
(lp4544
I55
as(I3
I0
tp4545
(lp4546
I20
as(I3
I1
tp4547
(lp4548
I23
as(I2
I1
tp4549
(lp4550
I36
as(I0
I2
tp4551
(lp4552
I86
as(I2
I0
tp4553
(lp4554
I8
as(I1
I3
tp4555
(lp4556
I46
as(I2
I3
tp4557
(lp4558
I79
as(I2
I2
tp4559
(lp4560
I78
as(I1
I0
tp4561
(lp4562
I30
as(I0
I3
tp4563
(lp4564
I14
as(I1
I1
tp4565
(lp4566
I18
assg199
g200
ssI10
g3918
sI34
(dp4567
g165
(dp4568
(I0
I1
tp4569
(lp4570
I88
as(I1
I2
tp4571
(lp4572
I92
as(I3
I2
tp4573
(lp4574
I62
as(I0
I0
tp4575
(lp4576
I28
as(I3
I3
tp4577
(lp4578
I57
as(I3
I0
tp4579
(lp4580
I62
as(I3
I1
tp4581
(lp4582
I94
as(I2
I1
tp4583
(lp4584
I80
as(I0
I2
tp4585
(lp4586
I16
as(I2
I0
tp4587
(lp4588
I96
as(I1
I3
tp4589
(lp4590
I65
as(I2
I3
tp4591
(lp4592
I1
as(I2
I2
tp4593
(lp4594
I8
as(I1
I0
tp4595
(lp4596
I20
as(I0
I3
tp4597
(lp4598
I52
as(I1
I1
tp4599
(lp4600
I47
assg199
g371
ssI47
(dp4601
g165
(dp4602
(I0
I1
tp4603
(lp4604
I62
as(I1
I2
tp4605
(lp4606
I48
as(I3
I2
tp4607
(lp4608
I18
as(I0
I0
tp4609
(lp4610
I5
as(I3
I3
tp4611
(lp4612
I13
as(I3
I0
tp4613
(lp4614
I73
as(I3
I1
tp4615
(lp4616
I7
as(I2
I1
tp4617
(lp4618
I24
as(I0
I2
tp4619
(lp4620
I95
as(I2
I0
tp4621
(lp4622
I1
as(I1
I3
tp4623
(lp4624
I90
as(I2
I3
tp4625
(lp4626
I78
as(I2
I2
tp4627
(lp4628
I37
as(I1
I0
tp4629
(lp4630
I61
as(I0
I3
tp4631
(lp4632
I93
as(I1
I1
tp4633
(lp4634
I36
assg199
g371
ssI48
(dp4635
g165
(dp4636
(I0
I1
tp4637
(lp4638
I43
as(I1
I2
tp4639
(lp4640
I9
as(I3
I2
tp4641
(lp4642
I2
as(I0
I0
tp4643
(lp4644
I82
as(I3
I3
tp4645
(lp4646
I56
as(I3
I0
tp4647
(lp4648
I77
as(I3
I1
tp4649
(lp4650
I61
as(I2
I1
tp4651
(lp4652
I94
as(I0
I2
tp4653
(lp4654
I46
as(I2
I0
tp4655
(lp4656
I49
as(I1
I3
tp4657
(lp4658
I92
as(I2
I3
tp4659
(lp4660
I24
as(I2
I2
tp4661
(lp4662
I98
as(I1
I0
tp4663
(lp4664
I68
as(I0
I3
tp4665
(lp4666
I26
as(I1
I1
tp4667
(lp4668
I91
assg199
g371
ssI27
(dp4669
g165
(dp4670
(I0
I1
tp4671
(lp4672
I10
as(I1
I2
tp4673
(lp4674
I51
as(I3
I2
tp4675
(lp4676
I45
as(I0
I0
tp4677
(lp4678
I46
as(I3
I3
tp4679
(lp4680
I42
as(I3
I0
tp4681
(lp4682
I68
as(I3
I1
tp4683
(lp4684
I97
as(I2
I1
tp4685
(lp4686
I8
as(I0
I2
tp4687
(lp4688
I43
as(I2
I0
tp4689
(lp4690
I58
as(I1
I3
tp4691
(lp4692
I69
as(I2
I3
tp4693
(lp4694
I50
as(I2
I2
tp4695
(lp4696
I23
as(I1
I0
tp4697
(lp4698
I18
as(I0
I3
tp4699
(lp4700
I85
as(I1
I1
tp4701
(lp4702
I75
assg199
g371
ssI15
(dp4703
g165
(dp4704
(I0
I1
tp4705
(lp4706
I54
as(I1
I2
tp4707
(lp4708
I56
as(I3
I2
tp4709
(lp4710
I90
as(I0
I0
tp4711
(lp4712
I77
as(I3
I3
tp4713
(lp4714
I41
as(I3
I0
tp4715
(lp4716
I42
as(I3
I1
tp4717
(lp4718
I52
as(I2
I1
tp4719
(lp4720
I10
as(I0
I2
tp4721
(lp4722
I100
as(I2
I0
tp4723
(lp4724
I28
as(I1
I3
tp4725
(lp4726
I14
as(I2
I3
tp4727
(lp4728
I69
as(I2
I2
tp4729
(lp4730
I99
as(I1
I0
tp4731
(lp4732
I42
as(I0
I3
tp4733
(lp4734
I11
as(I1
I1
tp4735
(lp4736
I27
assg199
g371
ssI30
(dp4737
g165
(dp4738
(I0
I1
tp4739
(lp4740
I28
as(I1
I2
tp4741
(lp4742
I100
as(I3
I2
tp4743
(lp4744
I8
as(I0
I0
tp4745
(lp4746
I23
as(I3
I3
tp4747
(lp4748
I16
as(I3
I0
tp4749
(lp4750
I18
as(I3
I1
tp4751
(lp4752
I47
as(I2
I1
tp4753
(lp4754
I12
as(I0
I2
tp4755
(lp4756
I70
as(I2
I0
tp4757
(lp4758
I23
as(I1
I3
tp4759
(lp4760
I79
as(I2
I3
tp4761
(lp4762
I38
as(I2
I2
tp4763
(lp4764
I85
as(I1
I0
tp4765
(lp4766
I12
as(I0
I3
tp4767
(lp4768
I70
as(I1
I1
tp4769
(lp4770
I4
assg199
g371
sssI14
(dp4771
I16
(dp4772
g165
(dp4773
(I0
I1
tp4774
(lp4775
I47
as(I1
I2
tp4776
(lp4777
I72
as(I3
I2
tp4778
(lp4779
I33
as(I0
I0
tp4780
(lp4781
I38
as(I3
I3
tp4782
(lp4783
I71
as(I3
I0
tp4784
(lp4785
I59
as(I3
I1
tp4786
(lp4787
I47
as(I2
I1
tp4788
(lp4789
I92
as(I0
I2
tp4790
(lp4791
I77
as(I2
I0
tp4792
(lp4793
I5
as(I1
I3
tp4794
(lp4795
I80
as(I2
I3
tp4796
(lp4797
I78
as(I2
I2
tp4798
(lp4799
I1
as(I1
I0
tp4800
(lp4801
I61
as(I0
I3
tp4802
(lp4803
I69
as(I1
I1
tp4804
(lp4805
I29
assg199
g371
ssI2
g1258
sI5
g2349
sI15
(dp4806
g165
(dp4807
(I0
I1
tp4808
(lp4809
I52
as(I1
I2
tp4810
(lp4811
I70
as(I3
I2
tp4812
(lp4813
I82
as(I0
I0
tp4814
(lp4815
I70
as(I3
I3
tp4816
(lp4817
I45
as(I3
I0
tp4818
(lp4819
I59
as(I3
I1
tp4820
(lp4821
I9
as(I2
I1
tp4822
(lp4823
I91
as(I0
I2
tp4824
(lp4825
I54
as(I2
I0
tp4826
(lp4827
I92
as(I1
I3
tp4828
(lp4829
I81
as(I2
I3
tp4830
(lp4831
I93
as(I2
I2
tp4832
(lp4833
I96
as(I1
I0
tp4834
(lp4835
I43
as(I0
I3
tp4836
(lp4837
I94
as(I1
I1
tp4838
(lp4839
I48
assg199
g200
ssI48
(dp4840
g165
(dp4841
(I0
I1
tp4842
(lp4843
I15
as(I1
I2
tp4844
(lp4845
I50
as(I3
I2
tp4846
(lp4847
I72
as(I0
I0
tp4848
(lp4849
I33
as(I3
I3
tp4850
(lp4851
I80
as(I3
I0
tp4852
(lp4853
I51
as(I3
I1
tp4854
(lp4855
I72
as(I2
I1
tp4856
(lp4857
I98
as(I0
I2
tp4858
(lp4859
I33
as(I2
I0
tp4860
(lp4861
I51
as(I1
I3
tp4862
(lp4863
I8
as(I2
I3
tp4864
(lp4865
I27
as(I2
I2
tp4866
(lp4867
I12
as(I1
I0
tp4868
(lp4869
I32
as(I0
I3
tp4870
(lp4871
I25
as(I1
I1
tp4872
(lp4873
I95
assg199
g371
ssI24
(dp4874
g165
(dp4875
(I0
I1
tp4876
(lp4877
I29
as(I1
I2
tp4878
(lp4879
I77
as(I3
I2
tp4880
(lp4881
I92
as(I0
I0
tp4882
(lp4883
I58
as(I3
I3
tp4884
(lp4885
I96
as(I3
I0
tp4886
(lp4887
I97
as(I3
I1
tp4888
(lp4889
I52
as(I2
I1
tp4890
(lp4891
I2
as(I0
I2
tp4892
(lp4893
I25
as(I2
I0
tp4894
(lp4895
I99
as(I1
I3
tp4896
(lp4897
I58
as(I2
I3
tp4898
(lp4899
I37
as(I2
I2
tp4900
(lp4901
I26
as(I1
I0
tp4902
(lp4903
I53
as(I0
I3
tp4904
(lp4905
I1
as(I1
I1
tp4906
(lp4907
I10
assg199
g371
ssI30
(dp4908
g165
(dp4909
(I0
I1
tp4910
(lp4911
I63
as(I1
I2
tp4912
(lp4913
I44
as(I3
I2
tp4914
(lp4915
I91
as(I0
I0
tp4916
(lp4917
I28
as(I3
I3
tp4918
(lp4919
I42
as(I3
I0
tp4920
(lp4921
I24
as(I3
I1
tp4922
(lp4923
I41
as(I2
I1
tp4924
(lp4925
I60
as(I0
I2
tp4926
(lp4927
I69
as(I2
I0
tp4928
(lp4929
I43
as(I1
I3
tp4930
(lp4931
I66
as(I2
I3
tp4932
(lp4933
I5
as(I2
I2
tp4934
(lp4935
I59
as(I1
I0
tp4936
(lp4937
I40
as(I0
I3
tp4938
(lp4939
I67
as(I1
I1
tp4940
(lp4941
I23
assg199
g371
ssI31
(dp4942
g165
(dp4943
(I0
I1
tp4944
(lp4945
I50
as(I1
I2
tp4946
(lp4947
I94
as(I3
I2
tp4948
(lp4949
I5
as(I0
I0
tp4950
(lp4951
I66
as(I3
I3
tp4952
(lp4953
I26
as(I3
I0
tp4954
(lp4955
I31
as(I3
I1
tp4956
(lp4957
I69
as(I2
I1
tp4958
(lp4959
I36
as(I0
I2
tp4960
(lp4961
I97
as(I2
I0
tp4962
(lp4963
I49
as(I1
I3
tp4964
(lp4965
I3
as(I2
I3
tp4966
(lp4967
I28
as(I2
I2
tp4968
(lp4969
I55
as(I1
I0
tp4970
(lp4971
I30
as(I0
I3
tp4972
(lp4973
I46
as(I1
I1
tp4974
(lp4975
I94
assg199
g371
sssI15
(dp4976
I36
(dp4977
g165
(dp4978
(I0
I1
tp4979
(lp4980
I26
as(I1
I2
tp4981
(lp4982
I25
as(I3
I2
tp4983
(lp4984
I41
as(I0
I0
tp4985
(lp4986
I12
as(I3
I3
tp4987
(lp4988
I54
as(I3
I0
tp4989
(lp4990
I33
as(I3
I1
tp4991
(lp4992
I47
as(I2
I1
tp4993
(lp4994
I29
as(I0
I2
tp4995
(lp4996
I15
as(I2
I0
tp4997
(lp4998
I11
as(I1
I3
tp4999
(lp5000
I85
as(I2
I3
tp5001
(lp5002
I8
as(I2
I2
tp5003
(lp5004
I35
as(I1
I0
tp5005
(lp5006
I18
as(I0
I3
tp5007
(lp5008
I8
as(I1
I1
tp5009
(lp5010
I71
assg199
g371
ssI5
g2383
sI6
g2724
sI7
g3167
sI40
(dp5011
g165
(dp5012
(I0
I1
tp5013
(lp5014
I16
as(I1
I2
tp5015
(lp5016
I30
as(I3
I2
tp5017
(lp5018
I69
as(I0
I0
tp5019
(lp5020
I26
as(I3
I3
tp5021
(lp5022
I6
as(I3
I0
tp5023
(lp5024
I30
as(I3
I1
tp5025
(lp5026
I92
as(I2
I1
tp5027
(lp5028
I98
as(I0
I2
tp5029
(lp5030
I62
as(I2
I0
tp5031
(lp5032
I73
as(I1
I3
tp5033
(lp5034
I40
as(I2
I3
tp5035
(lp5036
I99
as(I2
I2
tp5037
(lp5038
I26
as(I1
I0
tp5039
(lp5040
I40
as(I0
I3
tp5041
(lp5042
I41
as(I1
I1
tp5043
(lp5044
I65
assg199
g371
ssI13
g4703
sI14
g4806
sI47
(dp5045
g165
(dp5046
(I0
I1
tp5047
(lp5048
I79
as(I1
I2
tp5049
(lp5050
I18
as(I3
I2
tp5051
(lp5052
I95
as(I0
I0
tp5053
(lp5054
I30
as(I3
I3
tp5055
(lp5056
I43
as(I3
I0
tp5057
(lp5058
I2
as(I3
I1
tp5059
(lp5060
I6
as(I2
I1
tp5061
(lp5062
I47
as(I0
I2
tp5063
(lp5064
I37
as(I2
I0
tp5065
(lp5066
I98
as(I1
I3
tp5067
(lp5068
I22
as(I2
I3
tp5069
(lp5070
I91
as(I2
I2
tp5071
(lp5072
I60
as(I1
I0
tp5073
(lp5074
I19
as(I0
I3
tp5075
(lp5076
I75
as(I1
I1
tp5077
(lp5078
I47
assg199
g371
ssI29
(dp5079
g165
(dp5080
(I0
I1
tp5081
(lp5082
I59
as(I1
I2
tp5083
(lp5084
I30
as(I3
I2
tp5085
(lp5086
I62
as(I0
I0
tp5087
(lp5088
I59
as(I3
I3
tp5089
(lp5090
I82
as(I3
I0
tp5091
(lp5092
I56
as(I3
I1
tp5093
(lp5094
I10
as(I2
I1
tp5095
(lp5096
I99
as(I0
I2
tp5097
(lp5098
I7
as(I2
I0
tp5099
(lp5100
I85
as(I1
I3
tp5101
(lp5102
I39
as(I2
I3
tp5103
(lp5104
I31
as(I2
I2
tp5105
(lp5106
I83
as(I1
I0
tp5107
(lp5108
I72
as(I0
I3
tp5109
(lp5110
I21
as(I1
I1
tp5111
(lp5112
I13
assg199
g371
sssI16
(dp5113
I3
g1701
sI39
(dp5114
g165
(dp5115
(I0
I1
tp5116
(lp5117
I21
as(I1
I2
tp5118
(lp5119
I92
as(I3
I2
tp5120
(lp5121
I72
as(I0
I0
tp5122
(lp5123
I90
as(I3
I3
tp5124
(lp5125
I65
as(I3
I0
tp5126
(lp5127
I34
as(I3
I1
tp5128
(lp5129
I80
as(I2
I1
tp5130
(lp5131
I18
as(I0
I2
tp5132
(lp5133
I92
as(I2
I0
tp5134
(lp5135
I53
as(I1
I3
tp5136
(lp5137
I9
as(I2
I3
tp5138
(lp5139
I98
as(I2
I2
tp5140
(lp5141
I42
as(I1
I0
tp5142
(lp5143
I83
as(I0
I3
tp5144
(lp5145
I87
as(I1
I1
tp5146
(lp5147
I12
assg199
g371
ssI9
g3577
sI43
(dp5148
g165
(dp5149
(I0
I1
tp5150
(lp5151
I4
as(I1
I2
tp5152
(lp5153
I94
as(I3
I2
tp5154
(lp5155
I44
as(I0
I0
tp5156
(lp5157
I67
as(I3
I3
tp5158
(lp5159
I94
as(I3
I0
tp5160
(lp5161
I92
as(I3
I1
tp5162
(lp5163
I58
as(I2
I1
tp5164
(lp5165
I62
as(I0
I2
tp5166
(lp5167
I11
as(I2
I0
tp5168
(lp5169
I77
as(I1
I3
tp5170
(lp5171
I46
as(I2
I3
tp5172
(lp5173
I23
as(I2
I2
tp5174
(lp5175
I59
as(I1
I0
tp5176
(lp5177
I95
as(I0
I3
tp5178
(lp5179
I83
as(I1
I1
tp5180
(lp5181
I55
assg199
g371
ssI14
g4772
sI19
(dp5182
g165
(dp5183
(I0
I1
tp5184
(lp5185
I45
as(I1
I2
tp5186
(lp5187
I47
as(I3
I2
tp5188
(lp5189
I12
as(I0
I0
tp5190
(lp5191
I57
as(I3
I3
tp5192
(lp5193
I3
as(I3
I0
tp5194
(lp5195
I2
as(I3
I1
tp5196
(lp5197
I82
as(I2
I1
tp5198
(lp5199
I26
as(I0
I2
tp5200
(lp5201
I44
as(I2
I0
tp5202
(lp5203
I93
as(I1
I3
tp5204
(lp5205
I4
as(I2
I3
tp5206
(lp5207
I21
as(I2
I2
tp5208
(lp5209
I14
as(I1
I0
tp5210
(lp5211
I23
as(I0
I3
tp5212
(lp5213
I44
as(I1
I1
tp5214
(lp5215
I26
assg199
g371
ssI46
(dp5216
g165
(dp5217
(I0
I1
tp5218
(lp5219
I9
as(I1
I2
tp5220
(lp5221
I10
as(I3
I2
tp5222
(lp5223
I55
as(I0
I0
tp5224
(lp5225
I26
as(I3
I3
tp5226
(lp5227
I3
as(I3
I0
tp5228
(lp5229
I13
as(I3
I1
tp5230
(lp5231
I68
as(I2
I1
tp5232
(lp5233
I11
as(I0
I2
tp5234
(lp5235
I37
as(I2
I0
tp5236
(lp5237
I65
as(I1
I3
tp5238
(lp5239
I9
as(I2
I3
tp5240
(lp5241
I64
as(I2
I2
tp5242
(lp5243
I35
as(I1
I0
tp5244
(lp5245
I65
as(I0
I3
tp5246
(lp5247
I57
as(I1
I1
tp5248
(lp5249
I73
assg199
g200
ssI23
(dp5250
g165
(dp5251
(I0
I1
tp5252
(lp5253
I68
as(I1
I2
tp5254
(lp5255
I89
as(I3
I2
tp5256
(lp5257
I57
as(I0
I0
tp5258
(lp5259
I2
as(I3
I3
tp5260
(lp5261
I69
as(I3
I0
tp5262
(lp5263
I15
as(I3
I1
tp5264
(lp5265
I50
as(I2
I1
tp5266
(lp5267
I61
as(I0
I2
tp5268
(lp5269
I29
as(I2
I0
tp5270
(lp5271
I59
as(I1
I3
tp5272
(lp5273
I39
as(I2
I3
tp5274
(lp5275
I43
as(I2
I2
tp5276
(lp5277
I56
as(I1
I0
tp5278
(lp5279
I61
as(I0
I3
tp5280
(lp5281
I24
as(I1
I1
tp5282
(lp5283
I14
assg199
g371
ssI24
(dp5284
g165
(dp5285
(I0
I1
tp5286
(lp5287
I30
as(I1
I2
tp5288
(lp5289
I10
as(I3
I2
tp5290
(lp5291
I83
as(I0
I0
tp5292
(lp5293
I86
as(I3
I3
tp5294
(lp5295
I18
as(I3
I0
tp5296
(lp5297
I51
as(I3
I1
tp5298
(lp5299
I39
as(I2
I1
tp5300
(lp5301
I32
as(I0
I2
tp5302
(lp5303
I63
as(I2
I0
tp5304
(lp5305
I85
as(I1
I3
tp5306
(lp5307
I58
as(I2
I3
tp5308
(lp5309
I46
as(I2
I2
tp5310
(lp5311
I76
as(I1
I0
tp5312
(lp5313
I38
as(I0
I3
tp5314
(lp5315
I76
as(I1
I1
tp5316
(lp5317
I64
assg199
g200
ssI27
(dp5318
g165
(dp5319
(I0
I1
tp5320
(lp5321
I31
as(I1
I2
tp5322
(lp5323
I75
as(I3
I2
tp5324
(lp5325
I14
as(I0
I0
tp5326
(lp5327
I13
as(I3
I3
tp5328
(lp5329
I35
as(I3
I0
tp5330
(lp5331
I15
as(I3
I1
tp5332
(lp5333
I96
as(I2
I1
tp5334
(lp5335
I69
as(I0
I2
tp5336
(lp5337
I49
as(I2
I0
tp5338
(lp5339
I55
as(I1
I3
tp5340
(lp5341
I30
as(I2
I3
tp5342
(lp5343
I79
as(I2
I2
tp5344
(lp5345
I15
as(I1
I0
tp5346
(lp5347
I95
as(I0
I3
tp5348
(lp5349
I30
as(I1
I1
tp5350
(lp5351
I55
assg199
g200
ssI28
(dp5352
g165
(dp5353
(I0
I1
tp5354
(lp5355
I51
as(I1
I2
tp5356
(lp5357
I47
as(I3
I2
tp5358
(lp5359
I51
as(I0
I0
tp5360
(lp5361
I44
as(I3
I3
tp5362
(lp5363
I81
as(I3
I0
tp5364
(lp5365
I73
as(I3
I1
tp5366
(lp5367
I9
as(I2
I1
tp5368
(lp5369
I73
as(I0
I2
tp5370
(lp5371
I45
as(I2
I0
tp5372
(lp5373
I25
as(I1
I3
tp5374
(lp5375
I23
as(I2
I3
tp5376
(lp5377
I10
as(I2
I2
tp5378
(lp5379
I44
as(I1
I0
tp5380
(lp5381
I80
as(I0
I3
tp5382
(lp5383
I72
as(I1
I1
tp5384
(lp5385
I24
assg199
g200
ssI31
(dp5386
g165
(dp5387
(I0
I1
tp5388
(lp5389
I60
as(I1
I2
tp5390
(lp5391
I29
as(I3
I2
tp5392
(lp5393
I99
as(I0
I0
tp5394
(lp5395
I29
as(I3
I3
tp5396
(lp5397
I8
as(I3
I0
tp5398
(lp5399
I14
as(I3
I1
tp5400
(lp5401
I84
as(I2
I1
tp5402
(lp5403
I50
as(I0
I2
tp5404
(lp5405
I70
as(I2
I0
tp5406
(lp5407
I67
as(I1
I3
tp5408
(lp5409
I42
as(I2
I3
tp5410
(lp5411
I93
as(I2
I2
tp5412
(lp5413
I66
as(I1
I0
tp5414
(lp5415
I22
as(I0
I3
tp5416
(lp5417
I84
as(I1
I1
tp5418
(lp5419
I3
assg199
g200
sssI17
(dp5420
I0
g474
sI1
g883
sI12
g4328
sI5
g2451
sI32
(dp5421
g165
(dp5422
(I0
I1
tp5423
(lp5424
I53
as(I1
I2
tp5425
(lp5426
I86
as(I3
I2
tp5427
(lp5428
I100
as(I0
I0
tp5429
(lp5430
I13
as(I3
I3
tp5431
(lp5432
I4
as(I3
I0
tp5433
(lp5434
I31
as(I3
I1
tp5435
(lp5436
I73
as(I2
I1
tp5437
(lp5438
I54
as(I0
I2
tp5439
(lp5440
I53
as(I2
I0
tp5441
(lp5442
I74
as(I1
I3
tp5443
(lp5444
I47
as(I2
I3
tp5445
(lp5446
I8
as(I2
I2
tp5447
(lp5448
I56
as(I1
I0
tp5449
(lp5450
I66
as(I0
I3
tp5451
(lp5452
I97
as(I1
I1
tp5453
(lp5454
I20
assg199
g371
sssI18
(dp5455
I0
g508
sI4
g2110
sI39
(dp5456
g165
(dp5457
(I0
I1
tp5458
(lp5459
I85
as(I1
I2
tp5460
(lp5461
I42
as(I3
I2
tp5462
(lp5463
I29
as(I0
I0
tp5464
(lp5465
I77
as(I3
I3
tp5466
(lp5467
I84
as(I3
I0
tp5468
(lp5469
I51
as(I3
I1
tp5470
(lp5471
I54
as(I2
I1
tp5472
(lp5473
I4
as(I0
I2
tp5474
(lp5475
I99
as(I2
I0
tp5476
(lp5477
I72
as(I1
I3
tp5478
(lp5479
I29
as(I2
I3
tp5480
(lp5481
I37
as(I2
I2
tp5482
(lp5483
I47
as(I1
I0
tp5484
(lp5485
I25
as(I0
I3
tp5486
(lp5487
I76
as(I1
I1
tp5488
(lp5489
I34
assg199
g200
ssI11
g4157
sI20
(dp5490
g165
(dp5491
(I0
I1
tp5492
(lp5493
I78
as(I1
I2
tp5494
(lp5495
I12
as(I3
I2
tp5496
(lp5497
I58
as(I0
I0
tp5498
(lp5499
I61
as(I3
I3
tp5500
(lp5501
I73
as(I3
I0
tp5502
(lp5503
I10
as(I3
I1
tp5504
(lp5505
I43
as(I2
I1
tp5506
(lp5507
I46
as(I0
I2
tp5508
(lp5509
I44
as(I2
I0
tp5510
(lp5511
I92
as(I1
I3
tp5512
(lp5513
I86
as(I2
I3
tp5514
(lp5515
I31
as(I2
I2
tp5516
(lp5517
I57
as(I1
I0
tp5518
(lp5519
I6
as(I0
I3
tp5520
(lp5521
I19
as(I1
I1
tp5522
(lp5523
I33
assg199
g371
ssI7
g3201
sI30
(dp5524
g165
(dp5525
(I0
I1
tp5526
(lp5527
I9
as(I1
I2
tp5528
(lp5529
I12
as(I3
I2
tp5530
(lp5531
I38
as(I0
I0
tp5532
(lp5533
I60
as(I3
I3
tp5534
(lp5535
I33
as(I3
I0
tp5536
(lp5537
I80
as(I3
I1
tp5538
(lp5539
I19
as(I2
I1
tp5540
(lp5541
I84
as(I0
I2
tp5542
(lp5543
I86
as(I2
I0
tp5544
(lp5545
I55
as(I1
I3
tp5546
(lp5547
I86
as(I2
I3
tp5548
(lp5549
I51
as(I2
I2
tp5550
(lp5551
I64
as(I1
I0
tp5552
(lp5553
I74
as(I0
I3
tp5554
(lp5555
I93
as(I1
I1
tp5556
(lp5557
I38
assg199
g371
sssI19
(dp5558
I32
(dp5559
g165
(dp5560
(I0
I1
tp5561
(lp5562
I41
as(I1
I2
tp5563
(lp5564
I53
as(I3
I2
tp5565
(lp5566
I68
as(I0
I0
tp5567
(lp5568
I48
as(I3
I3
tp5569
(lp5570
I97
as(I3
I0
tp5571
(lp5572
I89
as(I3
I1
tp5573
(lp5574
I64
as(I2
I1
tp5575
(lp5576
I53
as(I0
I2
tp5577
(lp5578
I7
as(I2
I0
tp5579
(lp5580
I91
as(I1
I3
tp5581
(lp5582
I93
as(I2
I3
tp5583
(lp5584
I1
as(I2
I2
tp5585
(lp5586
I17
as(I1
I0
tp5587
(lp5588
I8
as(I0
I3
tp5589
(lp5590
I83
as(I1
I1
tp5591
(lp5592
I1
assg199
g371
ssI1
g917
sI2
g1360
sI35
(dp5593
g165
(dp5594
(I0
I1
tp5595
(lp5596
I20
as(I1
I2
tp5597
(lp5598
I5
as(I3
I2
tp5599
(lp5600
I68
as(I0
I0
tp5601
(lp5602
I23
as(I3
I3
tp5603
(lp5604
I74
as(I3
I0
tp5605
(lp5606
I28
as(I3
I1
tp5607
(lp5608
I27
as(I2
I1
tp5609
(lp5610
I12
as(I0
I2
tp5611
(lp5612
I33
as(I2
I0
tp5613
(lp5614
I3
as(I1
I3
tp5615
(lp5616
I12
as(I2
I3
tp5617
(lp5618
I86
as(I2
I2
tp5619
(lp5620
I74
as(I1
I0
tp5621
(lp5622
I57
as(I0
I3
tp5623
(lp5624
I86
as(I1
I1
tp5625
(lp5626
I74
assg199
g371
ssI5
g2485
sI7
g3235
sI16
g5182
sI33
(dp5627
g165
(dp5628
(I0
I1
tp5629
(lp5630
I30
as(I1
I2
tp5631
(lp5632
I91
as(I3
I2
tp5633
(lp5634
I42
as(I0
I0
tp5635
(lp5636
I29
as(I3
I3
tp5637
(lp5638
I96
as(I3
I0
tp5639
(lp5640
I55
as(I3
I1
tp5641
(lp5642
I80
as(I2
I1
tp5643
(lp5644
I1
as(I0
I2
tp5645
(lp5646
I82
as(I2
I0
tp5647
(lp5648
I50
as(I1
I3
tp5649
(lp5650
I30
as(I2
I3
tp5651
(lp5652
I92
as(I2
I2
tp5653
(lp5654
I15
as(I1
I0
tp5655
(lp5656
I46
as(I0
I3
tp5657
(lp5658
I14
as(I1
I1
tp5659
(lp5660
I67
assg199
g200
ssI27
(dp5661
g165
(dp5662
(I0
I1
tp5663
(lp5664
I30
as(I1
I2
tp5665
(lp5666
I55
as(I3
I2
tp5667
(lp5668
I77
as(I0
I0
tp5669
(lp5670
I27
as(I3
I3
tp5671
(lp5672
I15
as(I3
I0
tp5673
(lp5674
I49
as(I3
I1
tp5675
(lp5676
I59
as(I2
I1
tp5677
(lp5678
I100
as(I0
I2
tp5679
(lp5680
I79
as(I2
I0
tp5681
(lp5682
I97
as(I1
I3
tp5683
(lp5684
I23
as(I2
I3
tp5685
(lp5686
I36
as(I2
I2
tp5687
(lp5688
I64
as(I1
I0
tp5689
(lp5690
I53
as(I0
I3
tp5691
(lp5692
I47
as(I1
I1
tp5693
(lp5694
I38
assg199
g200
sssI20
(dp5695
I1
g951
sI3
g1735
sI6
g2792
sI39
(dp5696
g165
(dp5697
(I0
I1
tp5698
(lp5699
I69
as(I1
I2
tp5700
(lp5701
I42
as(I3
I2
tp5702
(lp5703
I6
as(I0
I0
tp5704
(lp5705
I41
as(I3
I3
tp5706
(lp5707
I88
as(I3
I0
tp5708
(lp5709
I16
as(I3
I1
tp5710
(lp5711
I78
as(I2
I1
tp5712
(lp5713
I99
as(I0
I2
tp5714
(lp5715
I47
as(I2
I0
tp5716
(lp5717
I67
as(I1
I3
tp5718
(lp5719
I45
as(I2
I3
tp5720
(lp5721
I99
as(I2
I2
tp5722
(lp5723
I8
as(I1
I0
tp5724
(lp5725
I49
as(I0
I3
tp5726
(lp5727
I91
as(I1
I1
tp5728
(lp5729
I78
assg199
g371
ssI41
(dp5730
g165
(dp5731
(I0
I1
tp5732
(lp5733
I41
as(I1
I2
tp5734
(lp5735
I12
as(I3
I2
tp5736
(lp5737
I73
as(I0
I0
tp5738
(lp5739
I82
as(I3
I3
tp5740
(lp5741
I68
as(I3
I0
tp5742
(lp5743
I36
as(I3
I1
tp5744
(lp5745
I94
as(I2
I1
tp5746
(lp5747
I30
as(I0
I2
tp5748
(lp5749
I17
as(I2
I0
tp5750
(lp5751
I27
as(I1
I3
tp5752
(lp5753
I44
as(I2
I3
tp5754
(lp5755
I71
as(I2
I2
tp5756
(lp5757
I47
as(I1
I0
tp5758
(lp5759
I20
as(I0
I3
tp5760
(lp5761
I23
as(I1
I1
tp5762
(lp5763
I83
assg199
g200
ssI44
(dp5764
g165
(dp5765
(I0
I1
tp5766
(lp5767
I4
as(I1
I2
tp5768
(lp5769
I3
as(I3
I2
tp5770
(lp5771
I99
as(I0
I0
tp5772
(lp5773
I30
as(I3
I3
tp5774
(lp5775
I47
as(I3
I0
tp5776
(lp5777
I29
as(I3
I1
tp5778
(lp5779
I40
as(I2
I1
tp5780
(lp5781
I29
as(I0
I2
tp5782
(lp5783
I76
as(I2
I0
tp5784
(lp5785
I67
as(I1
I3
tp5786
(lp5787
I23
as(I2
I3
tp5788
(lp5789
I76
as(I2
I2
tp5790
(lp5791
I82
as(I1
I0
tp5792
(lp5793
I20
as(I0
I3
tp5794
(lp5795
I11
as(I1
I1
tp5796
(lp5797
I8
assg199
g371
ssI18
g5490
sI22
(dp5798
g165
(dp5799
(I0
I1
tp5800
(lp5801
I68
as(I1
I2
tp5802
(lp5803
I48
as(I3
I2
tp5804
(lp5805
I59
as(I0
I0
tp5806
(lp5807
I3
as(I3
I3
tp5808
(lp5809
I67
as(I3
I0
tp5810
(lp5811
I66
as(I3
I1
tp5812
(lp5813
I54
as(I2
I1
tp5814
(lp5815
I91
as(I0
I2
tp5816
(lp5817
I5
as(I2
I0
tp5818
(lp5819
I84
as(I1
I3
tp5820
(lp5821
I57
as(I2
I3
tp5822
(lp5823
I67
as(I2
I2
tp5824
(lp5825
I48
as(I1
I0
tp5826
(lp5827
I98
as(I0
I3
tp5828
(lp5829
I37
as(I1
I1
tp5830
(lp5831
I96
assg199
g371
ssI23
(dp5832
g165
(dp5833
(I0
I1
tp5834
(lp5835
I75
as(I1
I2
tp5836
(lp5837
I96
as(I3
I2
tp5838
(lp5839
I26
as(I0
I0
tp5840
(lp5841
I61
as(I3
I3
tp5842
(lp5843
I19
as(I3
I0
tp5844
(lp5845
I79
as(I3
I1
tp5846
(lp5847
I92
as(I2
I1
tp5848
(lp5849
I32
as(I0
I2
tp5850
(lp5851
I54
as(I2
I0
tp5852
(lp5853
I89
as(I1
I3
tp5854
(lp5855
I80
as(I2
I3
tp5856
(lp5857
I58
as(I2
I2
tp5858
(lp5859
I67
as(I1
I0
tp5860
(lp5861
I59
as(I0
I3
tp5862
(lp5863
I87
as(I1
I1
tp5864
(lp5865
I71
assg199
g371
ssI29
(dp5866
g165
(dp5867
(I0
I1
tp5868
(lp5869
I77
as(I1
I2
tp5870
(lp5871
I22
as(I3
I2
tp5872
(lp5873
I76
as(I0
I0
tp5874
(lp5875
I94
as(I3
I3
tp5876
(lp5877
I86
as(I3
I0
tp5878
(lp5879
I64
as(I3
I1
tp5880
(lp5881
I15
as(I2
I1
tp5882
(lp5883
I18
as(I0
I2
tp5884
(lp5885
I9
as(I2
I0
tp5886
(lp5887
I93
as(I1
I3
tp5888
(lp5889
I45
as(I2
I3
tp5890
(lp5891
I81
as(I2
I2
tp5892
(lp5893
I19
as(I1
I0
tp5894
(lp5895
I69
as(I0
I3
tp5896
(lp5897
I88
as(I1
I1
tp5898
(lp5899
I88
assg199
g371
sssI21
(dp5900
I34
(dp5901
g165
(dp5902
(I0
I1
tp5903
(lp5904
I29
as(I1
I2
tp5905
(lp5906
I39
as(I3
I2
tp5907
(lp5908
I98
as(I0
I0
tp5909
(lp5910
I42
as(I3
I3
tp5911
(lp5912
I43
as(I3
I0
tp5913
(lp5914
I83
as(I3
I1
tp5915
(lp5916
I22
as(I2
I1
tp5917
(lp5918
I51
as(I0
I2
tp5919
(lp5920
I53
as(I2
I0
tp5921
(lp5922
I26
as(I1
I3
tp5923
(lp5924
I93
as(I2
I3
tp5925
(lp5926
I74
as(I2
I2
tp5927
(lp5928
I17
as(I1
I0
tp5929
(lp5930
I81
as(I0
I3
tp5931
(lp5932
I9
as(I1
I1
tp5933
(lp5934
I94
assg199
g371
ssI3
g1769
sI8
g3474
sI9
g3645
sI10
g3952
sI44
(dp5935
g165
(dp5936
(I0
I1
tp5937
(lp5938
I38
as(I1
I2
tp5939
(lp5940
I38
as(I3
I2
tp5941
(lp5942
I48
as(I0
I0
tp5943
(lp5944
I97
as(I3
I3
tp5945
(lp5946
I82
as(I3
I0
tp5947
(lp5948
I10
as(I3
I1
tp5949
(lp5950
I15
as(I2
I1
tp5951
(lp5952
I33
as(I0
I2
tp5953
(lp5954
I97
as(I2
I0
tp5955
(lp5956
I80
as(I1
I3
tp5957
(lp5958
I38
as(I2
I3
tp5959
(lp5960
I57
as(I2
I2
tp5961
(lp5962
I94
as(I1
I0
tp5963
(lp5964
I55
as(I0
I3
tp5965
(lp5966
I38
as(I1
I1
tp5967
(lp5968
I45
assg199
g371
ssI48
(dp5969
g165
(dp5970
(I0
I1
tp5971
(lp5972
I89
as(I1
I2
tp5973
(lp5974
I75
as(I3
I2
tp5975
(lp5976
I51
as(I0
I0
tp5977
(lp5978
I77
as(I3
I3
tp5979
(lp5980
I86
as(I3
I0
tp5981
(lp5982
I31
as(I3
I1
tp5983
(lp5984
I89
as(I2
I1
tp5985
(lp5986
I88
as(I0
I2
tp5987
(lp5988
I64
as(I2
I0
tp5989
(lp5990
I87
as(I1
I3
tp5991
(lp5992
I92
as(I2
I3
tp5993
(lp5994
I9
as(I2
I2
tp5995
(lp5996
I67
as(I1
I0
tp5997
(lp5998
I6
as(I0
I3
tp5999
(lp6000
I70
as(I1
I1
tp6001
(lp6002
I5
assg199
g371
ssI40
(dp6003
g165
(dp6004
(I0
I1
tp6005
(lp6006
I21
as(I1
I2
tp6007
(lp6008
I90
as(I3
I2
tp6009
(lp6010
I64
as(I0
I0
tp6011
(lp6012
I6
as(I3
I3
tp6013
(lp6014
I21
as(I3
I0
tp6015
(lp6016
I45
as(I3
I1
tp6017
(lp6018
I57
as(I2
I1
tp6019
(lp6020
I45
as(I0
I2
tp6021
(lp6022
I76
as(I2
I0
tp6023
(lp6024
I52
as(I1
I3
tp6025
(lp6026
I91
as(I2
I3
tp6027
(lp6028
I38
as(I2
I2
tp6029
(lp6030
I100
as(I1
I0
tp6031
(lp6032
I19
as(I0
I3
tp6033
(lp6034
I53
as(I1
I1
tp6035
(lp6036
I93
assg199
g200
sssI22
(dp6037
I32
(dp6038
g165
(dp6039
(I0
I1
tp6040
(lp6041
I8
as(I1
I2
tp6042
(lp6043
I70
as(I3
I2
tp6044
(lp6045
I7
as(I0
I0
tp6046
(lp6047
I73
as(I3
I3
tp6048
(lp6049
I37
as(I3
I0
tp6050
(lp6051
I4
as(I3
I1
tp6052
(lp6053
I12
as(I2
I1
tp6054
(lp6055
I8
as(I0
I2
tp6056
(lp6057
I90
as(I2
I0
tp6058
(lp6059
I82
as(I1
I3
tp6060
(lp6061
I5
as(I2
I3
tp6062
(lp6063
I75
as(I2
I2
tp6064
(lp6065
I68
as(I1
I0
tp6066
(lp6067
I51
as(I0
I3
tp6068
(lp6069
I75
as(I1
I1
tp6070
(lp6071
I6
assg199
g371
ssI3
g1803
sI7
g3269
sI8
g3508
sI46
(dp6072
g165
(dp6073
(I0
I1
tp6074
(lp6075
I19
as(I1
I2
tp6076
(lp6077
I59
as(I3
I2
tp6078
(lp6079
I63
as(I0
I0
tp6080
(lp6081
I69
as(I3
I3
tp6082
(lp6083
I33
as(I3
I0
tp6084
(lp6085
I91
as(I3
I1
tp6086
(lp6087
I33
as(I2
I1
tp6088
(lp6089
I11
as(I0
I2
tp6090
(lp6091
I46
as(I2
I0
tp6092
(lp6093
I72
as(I1
I3
tp6094
(lp6095
I95
as(I2
I3
tp6096
(lp6097
I29
as(I2
I2
tp6098
(lp6099
I99
as(I1
I0
tp6100
(lp6101
I20
as(I0
I3
tp6102
(lp6103
I75
as(I1
I1
tp6104
(lp6105
I64
assg199
g371
ssI40
(dp6106
g165
(dp6107
(I0
I1
tp6108
(lp6109
I68
as(I1
I2
tp6110
(lp6111
I8
as(I3
I2
tp6112
(lp6113
I30
as(I0
I0
tp6114
(lp6115
I31
as(I3
I3
tp6116
(lp6117
I68
as(I3
I0
tp6118
(lp6119
I36
as(I3
I1
tp6120
(lp6121
I12
as(I2
I1
tp6122
(lp6123
I33
as(I0
I2
tp6124
(lp6125
I84
as(I2
I0
tp6126
(lp6127
I22
as(I1
I3
tp6128
(lp6129
I90
as(I2
I3
tp6130
(lp6131
I53
as(I2
I2
tp6132
(lp6133
I46
as(I1
I0
tp6134
(lp6135
I77
as(I0
I3
tp6136
(lp6137
I72
as(I1
I1
tp6138
(lp6139
I50
assg199
g200
ssI35
(dp6140
g165
(dp6141
(I0
I1
tp6142
(lp6143
I63
as(I1
I2
tp6144
(lp6145
I38
as(I3
I2
tp6146
(lp6147
I32
as(I0
I0
tp6148
(lp6149
I94
as(I3
I3
tp6150
(lp6151
I8
as(I3
I0
tp6152
(lp6153
I42
as(I3
I1
tp6154
(lp6155
I53
as(I2
I1
tp6156
(lp6157
I19
as(I0
I2
tp6158
(lp6159
I76
as(I2
I0
tp6160
(lp6161
I37
as(I1
I3
tp6162
(lp6163
I89
as(I2
I3
tp6164
(lp6165
I19
as(I2
I2
tp6166
(lp6167
I35
as(I1
I0
tp6168
(lp6169
I59
as(I0
I3
tp6170
(lp6171
I17
as(I1
I1
tp6172
(lp6173
I63
assg199
g371
ssI20
g5798
sI23
(dp6174
g165
(dp6175
(I0
I1
tp6176
(lp6177
I10
as(I1
I2
tp6178
(lp6179
I12
as(I3
I2
tp6180
(lp6181
I92
as(I0
I0
tp6182
(lp6183
I18
as(I3
I3
tp6184
(lp6185
I66
as(I3
I0
tp6186
(lp6187
I44
as(I3
I1
tp6188
(lp6189
I7
as(I2
I1
tp6190
(lp6191
I34
as(I0
I2
tp6192
(lp6193
I57
as(I2
I0
tp6194
(lp6195
I31
as(I1
I3
tp6196
(lp6197
I88
as(I2
I3
tp6198
(lp6199
I43
as(I2
I2
tp6200
(lp6201
I59
as(I1
I0
tp6202
(lp6203
I87
as(I0
I3
tp6204
(lp6205
I59
as(I1
I1
tp6206
(lp6207
I5
assg199
g371
ssI26
(dp6208
g165
(dp6209
(I0
I1
tp6210
(lp6211
I2
as(I1
I2
tp6212
(lp6213
I9
as(I3
I2
tp6214
(lp6215
I7
as(I0
I0
tp6216
(lp6217
I14
as(I3
I3
tp6218
(lp6219
I37
as(I3
I0
tp6220
(lp6221
I82
as(I3
I1
tp6222
(lp6223
I10
as(I2
I1
tp6224
(lp6225
I55
as(I0
I2
tp6226
(lp6227
I46
as(I2
I0
tp6228
(lp6229
I47
as(I1
I3
tp6230
(lp6231
I71
as(I2
I3
tp6232
(lp6233
I26
as(I2
I2
tp6234
(lp6235
I5
as(I1
I0
tp6236
(lp6237
I10
as(I0
I3
tp6238
(lp6239
I64
as(I1
I1
tp6240
(lp6241
I5
assg199
g371
ssI27
(dp6242
g165
(dp6243
(I0
I1
tp6244
(lp6245
I66
as(I1
I2
tp6246
(lp6247
I71
as(I3
I2
tp6248
(lp6249
I61
as(I0
I0
tp6250
(lp6251
I61
as(I3
I3
tp6252
(lp6253
I80
as(I3
I0
tp6254
(lp6255
I33
as(I3
I1
tp6256
(lp6257
I32
as(I2
I1
tp6258
(lp6259
I15
as(I0
I2
tp6260
(lp6261
I53
as(I2
I0
tp6262
(lp6263
I24
as(I1
I3
tp6264
(lp6265
I15
as(I2
I3
tp6266
(lp6267
I32
as(I2
I2
tp6268
(lp6269
I10
as(I1
I0
tp6270
(lp6271
I53
as(I0
I3
tp6272
(lp6273
I85
as(I1
I1
tp6274
(lp6275
I96
assg199
g371
sssI23
(dp6276
I2
g1394
sI37
(dp6277
g165
(dp6278
(I0
I1
tp6279
(lp6280
I15
as(I1
I2
tp6281
(lp6282
I41
as(I3
I2
tp6283
(lp6284
I85
as(I0
I0
tp6285
(lp6286
I46
as(I3
I3
tp6287
(lp6288
I74
as(I3
I0
tp6289
(lp6290
I35
as(I3
I1
tp6291
(lp6292
I1
as(I2
I1
tp6293
(lp6294
I14
as(I0
I2
tp6295
(lp6296
I9
as(I2
I0
tp6297
(lp6298
I25
as(I1
I3
tp6299
(lp6300
I2
as(I2
I3
tp6301
(lp6302
I61
as(I2
I2
tp6303
(lp6304
I18
as(I1
I0
tp6305
(lp6306
I85
as(I0
I3
tp6307
(lp6308
I13
as(I1
I1
tp6309
(lp6310
I54
assg199
g200
ssI9
g3679
sI11
g4191
sI16
g5250
sI20
g5832
sI22
g6174
sI28
(dp6311
g165
(dp6312
(I0
I1
tp6313
(lp6314
I34
as(I1
I2
tp6315
(lp6316
I36
as(I3
I2
tp6317
(lp6318
I70
as(I0
I0
tp6319
(lp6320
I40
as(I3
I3
tp6321
(lp6322
I85
as(I3
I0
tp6323
(lp6324
I79
as(I3
I1
tp6325
(lp6326
I81
as(I2
I1
tp6327
(lp6328
I46
as(I0
I2
tp6329
(lp6330
I99
as(I2
I0
tp6331
(lp6332
I27
as(I1
I3
tp6333
(lp6334
I68
as(I2
I3
tp6335
(lp6336
I10
as(I2
I2
tp6337
(lp6338
I86
as(I1
I0
tp6339
(lp6340
I34
as(I0
I3
tp6341
(lp6342
I28
as(I1
I1
tp6343
(lp6344
I70
assg199
g200
sssI24
(dp6345
I32
(dp6346
g165
(dp6347
(I0
I1
tp6348
(lp6349
I66
as(I1
I2
tp6350
(lp6351
I37
as(I3
I2
tp6352
(lp6353
I18
as(I0
I0
tp6354
(lp6355
I19
as(I3
I3
tp6356
(lp6357
I78
as(I3
I0
tp6358
(lp6359
I16
as(I3
I1
tp6360
(lp6361
I27
as(I2
I1
tp6362
(lp6363
I4
as(I0
I2
tp6364
(lp6365
I30
as(I2
I0
tp6366
(lp6367
I79
as(I1
I3
tp6368
(lp6369
I56
as(I2
I3
tp6370
(lp6371
I35
as(I2
I2
tp6372
(lp6373
I45
as(I1
I0
tp6374
(lp6375
I59
as(I0
I3
tp6376
(lp6377
I57
as(I1
I1
tp6378
(lp6379
I20
assg199
g371
ssI35
(dp6380
g165
(dp6381
(I0
I1
tp6382
(lp6383
I98
as(I1
I2
tp6384
(lp6385
I35
as(I3
I2
tp6386
(lp6387
I45
as(I0
I0
tp6388
(lp6389
I82
as(I3
I3
tp6390
(lp6391
I6
as(I3
I0
tp6392
(lp6393
I30
as(I3
I1
tp6394
(lp6395
I74
as(I2
I1
tp6396
(lp6397
I8
as(I0
I2
tp6398
(lp6399
I25
as(I2
I0
tp6400
(lp6401
I38
as(I1
I3
tp6402
(lp6403
I61
as(I2
I3
tp6404
(lp6405
I38
as(I2
I2
tp6406
(lp6407
I54
as(I1
I0
tp6408
(lp6409
I45
as(I0
I3
tp6410
(lp6411
I22
as(I1
I1
tp6412
(lp6413
I69
assg199
g200
ssI42
(dp6414
g165
(dp6415
(I0
I1
tp6416
(lp6417
I8
as(I1
I2
tp6418
(lp6419
I2
as(I3
I2
tp6420
(lp6421
I71
as(I0
I0
tp6422
(lp6423
I45
as(I3
I3
tp6424
(lp6425
I1
as(I3
I0
tp6426
(lp6427
I48
as(I3
I1
tp6428
(lp6429
I91
as(I2
I1
tp6430
(lp6431
I65
as(I0
I2
tp6432
(lp6433
I75
as(I2
I0
tp6434
(lp6435
I51
as(I1
I3
tp6436
(lp6437
I48
as(I2
I3
tp6438
(lp6439
I63
as(I2
I2
tp6440
(lp6441
I55
as(I1
I0
tp6442
(lp6443
I24
as(I0
I3
tp6444
(lp6445
I94
as(I1
I1
tp6446
(lp6447
I1
assg199
g371
ssI14
g4874
sI47
(dp6448
g165
(dp6449
(I0
I1
tp6450
(lp6451
I96
as(I1
I2
tp6452
(lp6453
I61
as(I3
I2
tp6454
(lp6455
I69
as(I0
I0
tp6456
(lp6457
I59
as(I3
I3
tp6458
(lp6459
I70
as(I3
I0
tp6460
(lp6461
I23
as(I3
I1
tp6462
(lp6463
I14
as(I2
I1
tp6464
(lp6465
I98
as(I0
I2
tp6466
(lp6467
I65
as(I2
I0
tp6468
(lp6469
I58
as(I1
I3
tp6470
(lp6471
I43
as(I2
I3
tp6472
(lp6473
I29
as(I2
I2
tp6474
(lp6475
I10
as(I1
I0
tp6476
(lp6477
I70
as(I0
I3
tp6478
(lp6479
I15
as(I1
I1
tp6480
(lp6481
I85
assg199
g371
ssI16
g5284
ssI25
(dp6482
I40
(dp6483
g165
(dp6484
(I0
I1
tp6485
(lp6486
I90
as(I1
I2
tp6487
(lp6488
I80
as(I3
I2
tp6489
(lp6490
I6
as(I0
I0
tp6491
(lp6492
I63
as(I3
I3
tp6493
(lp6494
I65
as(I3
I0
tp6495
(lp6496
I73
as(I3
I1
tp6497
(lp6498
I38
as(I2
I1
tp6499
(lp6500
I83
as(I0
I2
tp6501
(lp6502
I71
as(I2
I0
tp6503
(lp6504
I24
as(I1
I3
tp6505
(lp6506
I78
as(I2
I3
tp6507
(lp6508
I98
as(I2
I2
tp6509
(lp6510
I25
as(I1
I0
tp6511
(lp6512
I39
as(I0
I3
tp6513
(lp6514
I81
as(I1
I1
tp6515
(lp6516
I1
assg199
g200
ssI10
g3986
sI12
g4362
sI34
(dp6517
g165
(dp6518
(I0
I1
tp6519
(lp6520
I72
as(I1
I2
tp6521
(lp6522
I70
as(I3
I2
tp6523
(lp6524
I45
as(I0
I0
tp6525
(lp6526
I59
as(I3
I3
tp6527
(lp6528
I38
as(I3
I0
tp6529
(lp6530
I88
as(I3
I1
tp6531
(lp6532
I79
as(I2
I1
tp6533
(lp6534
I79
as(I0
I2
tp6535
(lp6536
I6
as(I2
I0
tp6537
(lp6538
I73
as(I1
I3
tp6539
(lp6540
I19
as(I2
I3
tp6541
(lp6542
I13
as(I2
I2
tp6543
(lp6544
I54
as(I1
I0
tp6545
(lp6546
I2
as(I0
I3
tp6547
(lp6548
I64
as(I1
I1
tp6549
(lp6550
I80
assg199
g371
sssI26
(dp6551
I9
g3713
sI10
g4020
sI3
g1837
sI22
g6208
sI43
(dp6552
g165
(dp6553
(I0
I1
tp6554
(lp6555
I22
as(I1
I2
tp6556
(lp6557
I32
as(I3
I2
tp6558
(lp6559
I55
as(I0
I0
tp6560
(lp6561
I72
as(I3
I3
tp6562
(lp6563
I64
as(I3
I0
tp6564
(lp6565
I59
as(I3
I1
tp6566
(lp6567
I82
as(I2
I1
tp6568
(lp6569
I76
as(I0
I2
tp6570
(lp6571
I58
as(I2
I0
tp6572
(lp6573
I59
as(I1
I3
tp6574
(lp6575
I95
as(I2
I3
tp6576
(lp6577
I16
as(I2
I2
tp6578
(lp6579
I60
as(I1
I0
tp6580
(lp6581
I76
as(I0
I3
tp6582
(lp6583
I89
as(I1
I1
tp6584
(lp6585
I10
assg199
g200
sssI27
(dp6586
I2
g1428
sI35
(dp6587
g165
(dp6588
(I0
I1
tp6589
(lp6590
I66
as(I1
I2
tp6591
(lp6592
I80
as(I3
I2
tp6593
(lp6594
I35
as(I0
I0
tp6595
(lp6596
I50
as(I3
I3
tp6597
(lp6598
I42
as(I3
I0
tp6599
(lp6600
I12
as(I3
I1
tp6601
(lp6602
I12
as(I2
I1
tp6603
(lp6604
I73
as(I0
I2
tp6605
(lp6606
I36
as(I2
I0
tp6607
(lp6608
I57
as(I1
I3
tp6609
(lp6610
I99
as(I2
I3
tp6611
(lp6612
I99
as(I2
I2
tp6613
(lp6614
I22
as(I1
I0
tp6615
(lp6616
I85
as(I0
I3
tp6617
(lp6618
I93
as(I1
I1
tp6619
(lp6620
I15
assg199
g371
ssI4
g2144
sI13
g4669
sI16
g5318
sI19
g5661
sI22
g6242
ssI28
(dp6621
I33
(dp6622
g165
(dp6623
(I0
I1
tp6624
(lp6625
I74
as(I1
I2
tp6626
(lp6627
I17
as(I3
I2
tp6628
(lp6629
I15
as(I0
I0
tp6630
(lp6631
I27
as(I3
I3
tp6632
(lp6633
I57
as(I3
I0
tp6634
(lp6635
I41
as(I3
I1
tp6636
(lp6637
I43
as(I2
I1
tp6638
(lp6639
I48
as(I0
I2
tp6640
(lp6641
I48
as(I2
I0
tp6642
(lp6643
I93
as(I1
I3
tp6644
(lp6645
I20
as(I2
I3
tp6646
(lp6647
I34
as(I2
I2
tp6648
(lp6649
I57
as(I1
I0
tp6650
(lp6651
I92
as(I0
I3
tp6652
(lp6653
I86
as(I1
I1
tp6654
(lp6655
I56
assg199
g200
ssI5
g2519
sI6
g2860
sI40
(dp6656
g165
(dp6657
(I0
I1
tp6658
(lp6659
I95
as(I1
I2
tp6660
(lp6661
I29
as(I3
I2
tp6662
(lp6663
I82
as(I0
I0
tp6664
(lp6665
I30
as(I3
I3
tp6666
(lp6667
I57
as(I3
I0
tp6668
(lp6669
I71
as(I3
I1
tp6670
(lp6671
I45
as(I2
I1
tp6672
(lp6673
I90
as(I0
I2
tp6674
(lp6675
I70
as(I2
I0
tp6676
(lp6677
I29
as(I1
I3
tp6678
(lp6679
I81
as(I2
I3
tp6680
(lp6681
I6
as(I2
I2
tp6682
(lp6683
I77
as(I1
I0
tp6684
(lp6685
I69
as(I0
I3
tp6686
(lp6687
I11
as(I1
I1
tp6688
(lp6689
I14
assg199
g200
ssI12
g4396
sI46
(dp6690
g165
(dp6691
(I0
I1
tp6692
(lp6693
I93
as(I1
I2
tp6694
(lp6695
I57
as(I3
I2
tp6696
(lp6697
I25
as(I0
I0
tp6698
(lp6699
I21
as(I3
I3
tp6700
(lp6701
I30
as(I3
I0
tp6702
(lp6703
I92
as(I3
I1
tp6704
(lp6705
I7
as(I2
I1
tp6706
(lp6707
I37
as(I0
I2
tp6708
(lp6709
I9
as(I2
I0
tp6710
(lp6711
I3
as(I1
I3
tp6712
(lp6713
I65
as(I2
I3
tp6714
(lp6715
I68
as(I2
I2
tp6716
(lp6717
I70
as(I1
I0
tp6718
(lp6719
I86
as(I0
I3
tp6720
(lp6721
I4
as(I1
I1
tp6722
(lp6723
I1
assg199
g200
ssI16
g5352
sI23
g6311
sI29
(dp6724
g165
(dp6725
(I0
I1
tp6726
(lp6727
I73
as(I1
I2
tp6728
(lp6729
I73
as(I3
I2
tp6730
(lp6731
I96
as(I0
I0
tp6732
(lp6733
I4
as(I3
I3
tp6734
(lp6735
I86
as(I3
I0
tp6736
(lp6737
I12
as(I3
I1
tp6738
(lp6739
I25
as(I2
I1
tp6740
(lp6741
I12
as(I0
I2
tp6742
(lp6743
I55
as(I2
I0
tp6744
(lp6745
I96
as(I1
I3
tp6746
(lp6747
I8
as(I2
I3
tp6748
(lp6749
I87
as(I2
I2
tp6750
(lp6751
I15
as(I1
I0
tp6752
(lp6753
I83
as(I0
I3
tp6754
(lp6755
I78
as(I1
I1
tp6756
(lp6757
I32
assg199
g200
ssI37
(dp6758
g165
(dp6759
(I0
I1
tp6760
(lp6761
I44
as(I1
I2
tp6762
(lp6763
I75
as(I3
I2
tp6764
(lp6765
I5
as(I0
I0
tp6766
(lp6767
I28
as(I3
I3
tp6768
(lp6769
I22
as(I3
I0
tp6770
(lp6771
I13
as(I3
I1
tp6772
(lp6773
I91
as(I2
I1
tp6774
(lp6775
I38
as(I0
I2
tp6776
(lp6777
I24
as(I2
I0
tp6778
(lp6779
I31
as(I1
I3
tp6780
(lp6781
I88
as(I2
I3
tp6782
(lp6783
I52
as(I2
I2
tp6784
(lp6785
I27
as(I1
I0
tp6786
(lp6787
I57
as(I0
I3
tp6788
(lp6789
I9
as(I1
I1
tp6790
(lp6791
I49
assg199
g200
sssI29
(dp6792
I1
g985
sI2
g1462
sI3
g1871
sI4
g2076
sI37
(dp6793
g165
(dp6794
(I0
I1
tp6795
(lp6796
I49
as(I1
I2
tp6797
(lp6798
I79
as(I3
I2
tp6799
(lp6800
I41
as(I0
I0
tp6801
(lp6802
I96
as(I3
I3
tp6803
(lp6804
I94
as(I3
I0
tp6805
(lp6806
I71
as(I3
I1
tp6807
(lp6808
I53
as(I2
I1
tp6809
(lp6810
I58
as(I0
I2
tp6811
(lp6812
I44
as(I2
I0
tp6813
(lp6814
I57
as(I1
I3
tp6815
(lp6816
I14
as(I2
I3
tp6817
(lp6818
I1
as(I2
I2
tp6819
(lp6820
I98
as(I1
I0
tp6821
(lp6822
I83
as(I0
I3
tp6823
(lp6824
I12
as(I1
I1
tp6825
(lp6826
I64
assg199
g371
ssI7
g3303
sI11
g4225
sI45
(dp6827
g165
(dp6828
(I0
I1
tp6829
(lp6830
I52
as(I1
I2
tp6831
(lp6832
I19
as(I3
I2
tp6833
(lp6834
I74
as(I0
I0
tp6835
(lp6836
I69
as(I3
I3
tp6837
(lp6838
I98
as(I3
I0
tp6839
(lp6840
I99
as(I3
I1
tp6841
(lp6842
I59
as(I2
I1
tp6843
(lp6844
I25
as(I0
I2
tp6845
(lp6846
I69
as(I2
I0
tp6847
(lp6848
I50
as(I1
I3
tp6849
(lp6850
I99
as(I2
I3
tp6851
(lp6852
I23
as(I2
I2
tp6853
(lp6854
I97
as(I1
I0
tp6855
(lp6856
I54
as(I0
I3
tp6857
(lp6858
I51
as(I1
I1
tp6859
(lp6860
I36
assg199
g200
ssI15
g5079
sI35
(dp6861
g165
(dp6862
(I0
I1
tp6863
(lp6864
I25
as(I1
I2
tp6865
(lp6866
I20
as(I3
I2
tp6867
(lp6868
I78
as(I0
I0
tp6869
(lp6870
I63
as(I3
I3
tp6871
(lp6872
I27
as(I3
I0
tp6873
(lp6874
I98
as(I3
I1
tp6875
(lp6876
I75
as(I2
I1
tp6877
(lp6878
I3
as(I0
I2
tp6879
(lp6880
I59
as(I2
I0
tp6881
(lp6882
I63
as(I1
I3
tp6883
(lp6884
I13
as(I2
I3
tp6885
(lp6886
I60
as(I2
I2
tp6887
(lp6888
I36
as(I1
I0
tp6889
(lp6890
I88
as(I0
I3
tp6891
(lp6892
I44
as(I1
I1
tp6893
(lp6894
I53
assg199
g371
ssI20
g5866
sI36
(dp6895
g165
(dp6896
(I0
I1
tp6897
(lp6898
I98
as(I1
I2
tp6899
(lp6900
I28
as(I3
I2
tp6901
(lp6902
I55
as(I0
I0
tp6903
(lp6904
I49
as(I3
I3
tp6905
(lp6906
I53
as(I3
I0
tp6907
(lp6908
I29
as(I3
I1
tp6909
(lp6910
I64
as(I2
I1
tp6911
(lp6912
I20
as(I0
I2
tp6913
(lp6914
I4
as(I2
I0
tp6915
(lp6916
I42
as(I1
I3
tp6917
(lp6918
I75
as(I2
I3
tp6919
(lp6920
I54
as(I2
I2
tp6921
(lp6922
I85
as(I1
I0
tp6923
(lp6924
I69
as(I0
I3
tp6925
(lp6926
I35
as(I1
I1
tp6927
(lp6928
I72
assg199
g200
ssI28
g6724
ssI30
(dp6929
I1
g1019
sI2
g1496
sI6
g2894
sI41
(dp6930
g165
(dp6931
(I0
I1
tp6932
(lp6933
I85
as(I1
I2
tp6934
(lp6935
I52
as(I3
I2
tp6936
(lp6937
I98
as(I0
I0
tp6938
(lp6939
I28
as(I3
I3
tp6940
(lp6941
I81
as(I3
I0
tp6942
(lp6943
I52
as(I3
I1
tp6944
(lp6945
I79
as(I2
I1
tp6946
(lp6947
I11
as(I0
I2
tp6948
(lp6949
I70
as(I2
I0
tp6950
(lp6951
I14
as(I1
I3
tp6952
(lp6953
I40
as(I2
I3
tp6954
(lp6955
I33
as(I2
I2
tp6956
(lp6957
I17
as(I1
I0
tp6958
(lp6959
I64
as(I0
I3
tp6960
(lp6961
I66
as(I1
I1
tp6962
(lp6963
I12
assg199
g200
ssI44
(dp6964
g165
(dp6965
(I0
I1
tp6966
(lp6967
I81
as(I1
I2
tp6968
(lp6969
I36
as(I3
I2
tp6970
(lp6971
I54
as(I0
I0
tp6972
(lp6973
I20
as(I3
I3
tp6974
(lp6975
I40
as(I3
I0
tp6976
(lp6977
I67
as(I3
I1
tp6978
(lp6979
I21
as(I2
I1
tp6980
(lp6981
I78
as(I0
I2
tp6982
(lp6983
I42
as(I2
I0
tp6984
(lp6985
I77
as(I1
I3
tp6986
(lp6987
I3
as(I2
I3
tp6988
(lp6989
I79
as(I2
I2
tp6990
(lp6991
I62
as(I1
I0
tp6992
(lp6993
I43
as(I0
I3
tp6994
(lp6995
I91
as(I1
I1
tp6996
(lp6997
I49
assg199
g371
ssI13
g4737
sI14
g4908
sI48
(dp6998
g165
(dp6999
(I0
I1
tp7000
(lp7001
I15
as(I1
I2
tp7002
(lp7003
I60
as(I3
I2
tp7004
(lp7005
I95
as(I0
I0
tp7006
(lp7007
I26
as(I3
I3
tp7008
(lp7009
I79
as(I3
I0
tp7010
(lp7011
I97
as(I3
I1
tp7012
(lp7013
I83
as(I2
I1
tp7014
(lp7015
I67
as(I0
I2
tp7016
(lp7017
I41
as(I2
I0
tp7018
(lp7019
I56
as(I1
I3
tp7020
(lp7021
I96
as(I2
I3
tp7022
(lp7023
I68
as(I2
I2
tp7024
(lp7025
I99
as(I1
I0
tp7026
(lp7027
I53
as(I0
I3
tp7028
(lp7029
I87
as(I1
I1
tp7030
(lp7031
I16
assg199
g371
ssI18
g5524
sI46
(dp7032
g165
(dp7033
(I0
I1
tp7034
(lp7035
I97
as(I1
I2
tp7036
(lp7037
I60
as(I3
I2
tp7038
(lp7039
I17
as(I0
I0
tp7040
(lp7041
I50
as(I3
I3
tp7042
(lp7043
I50
as(I3
I0
tp7044
(lp7045
I2
as(I3
I1
tp7046
(lp7047
I88
as(I2
I1
tp7048
(lp7049
I27
as(I0
I2
tp7050
(lp7051
I77
as(I2
I0
tp7052
(lp7053
I46
as(I1
I3
tp7054
(lp7055
I4
as(I2
I3
tp7056
(lp7057
I90
as(I2
I2
tp7058
(lp7059
I85
as(I1
I0
tp7060
(lp7061
I73
as(I0
I3
tp7062
(lp7063
I68
as(I1
I1
tp7064
(lp7065
I28
assg199
g371
sssI31
(dp7066
I34
(dp7067
g165
(dp7068
(I0
I1
tp7069
(lp7070
I55
as(I1
I2
tp7071
(lp7072
I48
as(I3
I2
tp7073
(lp7074
I92
as(I0
I0
tp7075
(lp7076
I39
as(I3
I3
tp7077
(lp7078
I78
as(I3
I0
tp7079
(lp7080
I63
as(I3
I1
tp7081
(lp7082
I43
as(I2
I1
tp7083
(lp7084
I15
as(I0
I2
tp7085
(lp7086
I40
as(I2
I0
tp7087
(lp7088
I15
as(I1
I3
tp7089
(lp7090
I1
as(I2
I3
tp7091
(lp7092
I73
as(I2
I2
tp7093
(lp7094
I16
as(I1
I0
tp7095
(lp7096
I33
as(I0
I3
tp7097
(lp7098
I57
as(I1
I1
tp7099
(lp7100
I70
assg199
g371
ssI37
(dp7101
g165
(dp7102
(I0
I1
tp7103
(lp7104
I14
as(I1
I2
tp7105
(lp7106
I65
as(I3
I2
tp7107
(lp7108
I100
as(I0
I0
tp7109
(lp7110
I68
as(I3
I3
tp7111
(lp7112
I36
as(I3
I0
tp7113
(lp7114
I41
as(I3
I1
tp7115
(lp7116
I69
as(I2
I1
tp7117
(lp7118
I74
as(I0
I2
tp7119
(lp7120
I59
as(I2
I0
tp7121
(lp7122
I34
as(I1
I3
tp7123
(lp7124
I68
as(I2
I3
tp7125
(lp7126
I83
as(I2
I2
tp7127
(lp7128
I34
as(I1
I0
tp7129
(lp7130
I24
as(I0
I3
tp7131
(lp7132
I90
as(I1
I1
tp7133
(lp7134
I5
assg199
g200
ssI10
g4054
sI44
(dp7135
g165
(dp7136
(I0
I1
tp7137
(lp7138
I68
as(I1
I2
tp7139
(lp7140
I76
as(I3
I2
tp7141
(lp7142
I84
as(I0
I0
tp7143
(lp7144
I47
as(I3
I3
tp7145
(lp7146
I18
as(I3
I0
tp7147
(lp7148
I12
as(I3
I1
tp7149
(lp7150
I88
as(I2
I1
tp7151
(lp7152
I37
as(I0
I2
tp7153
(lp7154
I96
as(I2
I0
tp7155
(lp7156
I8
as(I1
I3
tp7157
(lp7158
I69
as(I2
I3
tp7159
(lp7160
I16
as(I2
I2
tp7161
(lp7162
I92
as(I1
I0
tp7163
(lp7164
I12
as(I0
I3
tp7165
(lp7166
I39
as(I1
I1
tp7167
(lp7168
I44
assg199
g371
ssI14
g4942
sI16
g5386
ssI32
(dp7169
I39
(dp7170
g165
(dp7171
(I0
I1
tp7172
(lp7173
I85
as(I1
I2
tp7174
(lp7175
I2
as(I3
I2
tp7176
(lp7177
I88
as(I0
I0
tp7178
(lp7179
I60
as(I3
I3
tp7180
(lp7181
I19
as(I3
I0
tp7182
(lp7183
I68
as(I3
I1
tp7184
(lp7185
I63
as(I2
I1
tp7186
(lp7187
I92
as(I0
I2
tp7188
(lp7189
I24
as(I2
I0
tp7190
(lp7191
I55
as(I1
I3
tp7192
(lp7193
I70
as(I2
I3
tp7194
(lp7195
I65
as(I2
I2
tp7196
(lp7197
I19
as(I1
I0
tp7198
(lp7199
I68
as(I0
I3
tp7200
(lp7201
I78
as(I1
I1
tp7202
(lp7203
I84
assg199
g200
ssI10
g3748
sI43
(dp7204
g165
(dp7205
(I0
I1
tp7206
(lp7207
I49
as(I1
I2
tp7208
(lp7209
I38
as(I3
I2
tp7210
(lp7211
I68
as(I0
I0
tp7212
(lp7213
I30
as(I3
I3
tp7214
(lp7215
I37
as(I3
I0
tp7216
(lp7217
I13
as(I3
I1
tp7218
(lp7219
I75
as(I2
I1
tp7220
(lp7221
I72
as(I0
I2
tp7222
(lp7223
I92
as(I2
I0
tp7224
(lp7225
I56
as(I1
I3
tp7226
(lp7227
I54
as(I2
I3
tp7228
(lp7229
I1
as(I2
I2
tp7230
(lp7231
I5
as(I1
I0
tp7232
(lp7233
I24
as(I0
I3
tp7234
(lp7235
I30
as(I1
I1
tp7236
(lp7237
I46
assg199
g371
ssI44
(dp7238
g165
(dp7239
(I0
I1
tp7240
(lp7241
I13
as(I1
I2
tp7242
(lp7243
I85
as(I3
I2
tp7244
(lp7245
I22
as(I0
I0
tp7246
(lp7247
I2
as(I3
I3
tp7248
(lp7249
I13
as(I3
I0
tp7250
(lp7251
I20
as(I3
I1
tp7252
(lp7253
I46
as(I2
I1
tp7254
(lp7255
I83
as(I0
I2
tp7256
(lp7257
I38
as(I2
I0
tp7258
(lp7259
I64
as(I1
I3
tp7260
(lp7261
I20
as(I2
I3
tp7262
(lp7263
I35
as(I2
I2
tp7264
(lp7265
I34
as(I1
I0
tp7266
(lp7267
I88
as(I0
I3
tp7268
(lp7269
I72
as(I1
I1
tp7270
(lp7271
I37
assg199
g371
ssI17
g5421
sI19
g5559
sI22
g6038
sI24
g6346
ssI33
(dp7272
I39
(dp7273
g165
(dp7274
(I0
I1
tp7275
(lp7276
I59
as(I1
I2
tp7277
(lp7278
I33
as(I3
I2
tp7279
(lp7280
I49
as(I0
I0
tp7281
(lp7282
I21
as(I3
I3
tp7283
(lp7284
I81
as(I3
I0
tp7285
(lp7286
I89
as(I3
I1
tp7287
(lp7288
I59
as(I2
I1
tp7289
(lp7290
I99
as(I0
I2
tp7291
(lp7292
I3
as(I2
I0
tp7293
(lp7294
I85
as(I1
I3
tp7295
(lp7296
I73
as(I2
I3
tp7297
(lp7298
I78
as(I2
I2
tp7299
(lp7300
I42
as(I1
I0
tp7301
(lp7302
I63
as(I0
I3
tp7303
(lp7304
I73
as(I1
I1
tp7305
(lp7306
I94
assg199
g200
ssI41
(dp7307
g165
(dp7308
(I0
I1
tp7309
(lp7310
I74
as(I1
I2
tp7311
(lp7312
I41
as(I3
I2
tp7313
(lp7314
I80
as(I0
I0
tp7315
(lp7316
I22
as(I3
I3
tp7317
(lp7318
I58
as(I3
I0
tp7319
(lp7320
I48
as(I3
I1
tp7321
(lp7322
I23
as(I2
I1
tp7323
(lp7324
I40
as(I0
I2
tp7325
(lp7326
I55
as(I2
I0
tp7327
(lp7328
I85
as(I1
I3
tp7329
(lp7330
I1
as(I2
I3
tp7331
(lp7332
I6
as(I2
I2
tp7333
(lp7334
I19
as(I1
I0
tp7335
(lp7336
I47
as(I0
I3
tp7337
(lp7338
I99
as(I1
I1
tp7339
(lp7340
I19
assg199
g200
ssI43
(dp7341
g165
(dp7342
(I0
I1
tp7343
(lp7344
I13
as(I1
I2
tp7345
(lp7346
I75
as(I3
I2
tp7347
(lp7348
I1
as(I0
I0
tp7349
(lp7350
I61
as(I3
I3
tp7351
(lp7352
I92
as(I3
I0
tp7353
(lp7354
I56
as(I3
I1
tp7355
(lp7356
I50
as(I2
I1
tp7357
(lp7358
I27
as(I0
I2
tp7359
(lp7360
I59
as(I2
I0
tp7361
(lp7362
I78
as(I1
I3
tp7363
(lp7364
I6
as(I2
I3
tp7365
(lp7366
I87
as(I2
I2
tp7367
(lp7368
I25
as(I1
I0
tp7369
(lp7370
I46
as(I0
I3
tp7371
(lp7372
I92
as(I1
I1
tp7373
(lp7374
I4
assg199
g200
ssI12
g4260
sI46
(dp7375
g165
(dp7376
(I0
I1
tp7377
(lp7378
I60
as(I1
I2
tp7379
(lp7380
I16
as(I3
I2
tp7381
(lp7382
I85
as(I0
I0
tp7383
(lp7384
I98
as(I3
I3
tp7385
(lp7386
I50
as(I3
I0
tp7387
(lp7388
I83
as(I3
I1
tp7389
(lp7390
I43
as(I2
I1
tp7391
(lp7392
I82
as(I0
I2
tp7393
(lp7394
I53
as(I2
I0
tp7395
(lp7396
I69
as(I1
I3
tp7397
(lp7398
I15
as(I2
I3
tp7399
(lp7400
I79
as(I2
I2
tp7401
(lp7402
I49
as(I1
I0
tp7403
(lp7404
I88
as(I0
I3
tp7405
(lp7406
I44
as(I1
I1
tp7407
(lp7408
I79
assg199
g371
ssI44
(dp7409
g165
(dp7410
(I0
I1
tp7411
(lp7412
I53
as(I1
I2
tp7413
(lp7414
I12
as(I3
I2
tp7415
(lp7416
I60
as(I0
I0
tp7417
(lp7418
I18
as(I3
I3
tp7419
(lp7420
I93
as(I3
I0
tp7421
(lp7422
I78
as(I3
I1
tp7423
(lp7424
I89
as(I2
I1
tp7425
(lp7426
I48
as(I0
I2
tp7427
(lp7428
I42
as(I2
I0
tp7429
(lp7430
I71
as(I1
I3
tp7431
(lp7432
I56
as(I2
I3
tp7433
(lp7434
I91
as(I2
I2
tp7435
(lp7436
I90
as(I1
I0
tp7437
(lp7438
I5
as(I0
I3
tp7439
(lp7440
I4
as(I1
I1
tp7441
(lp7442
I94
assg199
g200
ssI19
g5627
sI7
g2929
sI28
g6622
ssI34
(dp7443
I0
g164
sI36
(dp7444
g165
(dp7445
(I0
I1
tp7446
(lp7447
I28
as(I1
I2
tp7448
(lp7449
I56
as(I3
I2
tp7450
(lp7451
I55
as(I0
I0
tp7452
(lp7453
I21
as(I3
I3
tp7454
(lp7455
I19
as(I3
I0
tp7456
(lp7457
I27
as(I3
I1
tp7458
(lp7459
I42
as(I2
I1
tp7460
(lp7461
I58
as(I0
I2
tp7462
(lp7463
I1
as(I2
I0
tp7464
(lp7465
I39
as(I1
I3
tp7466
(lp7467
I77
as(I2
I3
tp7468
(lp7469
I79
as(I2
I2
tp7470
(lp7471
I55
as(I1
I0
tp7472
(lp7473
I37
as(I0
I3
tp7474
(lp7475
I92
as(I1
I1
tp7476
(lp7477
I16
assg199
g371
ssI41
(dp7478
g165
(dp7479
(I0
I1
tp7480
(lp7481
I26
as(I1
I2
tp7482
(lp7483
I36
as(I3
I2
tp7484
(lp7485
I11
as(I0
I0
tp7486
(lp7487
I47
as(I3
I3
tp7488
(lp7489
I93
as(I3
I0
tp7490
(lp7491
I56
as(I3
I1
tp7492
(lp7493
I81
as(I2
I1
tp7494
(lp7495
I52
as(I0
I2
tp7496
(lp7497
I63
as(I2
I0
tp7498
(lp7499
I21
as(I1
I3
tp7500
(lp7501
I88
as(I2
I3
tp7502
(lp7503
I42
as(I2
I2
tp7504
(lp7505
I48
as(I1
I0
tp7506
(lp7507
I66
as(I0
I3
tp7508
(lp7509
I20
as(I1
I1
tp7510
(lp7511
I67
assg199
g200
ssI13
g4567
sI45
(dp7512
g165
(dp7513
(I0
I1
tp7514
(lp7515
I26
as(I1
I2
tp7516
(lp7517
I61
as(I3
I2
tp7518
(lp7519
I38
as(I0
I0
tp7520
(lp7521
I97
as(I3
I3
tp7522
(lp7523
I82
as(I3
I0
tp7524
(lp7525
I95
as(I3
I1
tp7526
(lp7527
I75
as(I2
I1
tp7528
(lp7529
I91
as(I0
I2
tp7530
(lp7531
I46
as(I2
I0
tp7532
(lp7533
I42
as(I1
I3
tp7534
(lp7535
I38
as(I2
I3
tp7536
(lp7537
I55
as(I2
I2
tp7538
(lp7539
I99
as(I1
I0
tp7540
(lp7541
I4
as(I0
I3
tp7542
(lp7543
I98
as(I1
I1
tp7544
(lp7545
I34
assg199
g371
ssI21
g5901
sI25
g6517
sI31
g7067
ssI35
(dp7546
I0
g201
sI6
g2554
sI42
(dp7547
g165
(dp7548
(I0
I1
tp7549
(lp7550
I43
as(I1
I2
tp7551
(lp7552
I2
as(I3
I2
tp7553
(lp7554
I42
as(I0
I0
tp7555
(lp7556
I83
as(I3
I3
tp7557
(lp7558
I78
as(I3
I0
tp7559
(lp7560
I98
as(I3
I1
tp7561
(lp7562
I56
as(I2
I1
tp7563
(lp7564
I17
as(I0
I2
tp7565
(lp7566
I91
as(I2
I0
tp7567
(lp7568
I20
as(I1
I3
tp7569
(lp7570
I16
as(I2
I3
tp7571
(lp7572
I5
as(I2
I2
tp7573
(lp7574
I15
as(I1
I0
tp7575
(lp7576
I40
as(I0
I3
tp7577
(lp7578
I41
as(I1
I1
tp7579
(lp7580
I82
assg199
g200
ssI11
g4089
sI13
g4465
sI47
(dp7581
g165
(dp7582
(I0
I1
tp7583
(lp7584
I29
as(I1
I2
tp7585
(lp7586
I4
as(I3
I2
tp7587
(lp7588
I9
as(I0
I0
tp7589
(lp7590
I86
as(I3
I3
tp7591
(lp7592
I98
as(I3
I0
tp7593
(lp7594
I57
as(I3
I1
tp7595
(lp7596
I8
as(I2
I1
tp7597
(lp7598
I17
as(I0
I2
tp7599
(lp7600
I81
as(I2
I0
tp7601
(lp7602
I90
as(I1
I3
tp7603
(lp7604
I42
as(I2
I3
tp7605
(lp7606
I6
as(I2
I2
tp7607
(lp7608
I78
as(I1
I0
tp7609
(lp7610
I36
as(I0
I3
tp7611
(lp7612
I52
as(I1
I1
tp7613
(lp7614
I33
assg199
g371
ssI19
g5593
sI22
g6140
sI24
g6380
sI27
g6587
sI29
g6861
ssI36
(dp7615
I1
g679
sI34
g7444
sI3
g1531
sI37
(dp7616
g165
(dp7617
(I0
I1
tp7618
(lp7619
I32
as(I1
I2
tp7620
(lp7621
I38
as(I3
I2
tp7622
(lp7623
I39
as(I0
I0
tp7624
(lp7625
I95
as(I3
I3
tp7626
(lp7627
I11
as(I3
I0
tp7628
(lp7629
I67
as(I3
I1
tp7630
(lp7631
I99
as(I2
I1
tp7632
(lp7633
I18
as(I0
I2
tp7634
(lp7635
I1
as(I2
I0
tp7636
(lp7637
I47
as(I1
I3
tp7638
(lp7639
I85
as(I2
I3
tp7640
(lp7641
I22
as(I2
I2
tp7642
(lp7643
I100
as(I1
I0
tp7644
(lp7645
I32
as(I0
I3
tp7646
(lp7647
I28
as(I1
I1
tp7648
(lp7649
I67
assg199
g200
ssI38
(dp7650
g165
(dp7651
(I0
I1
tp7652
(lp7653
I71
as(I1
I2
tp7654
(lp7655
I95
as(I3
I2
tp7656
(lp7657
I6
as(I0
I0
tp7658
(lp7659
I48
as(I3
I3
tp7660
(lp7661
I53
as(I3
I0
tp7662
(lp7663
I12
as(I3
I1
tp7664
(lp7665
I69
as(I2
I1
tp7666
(lp7667
I78
as(I0
I2
tp7668
(lp7669
I67
as(I2
I0
tp7670
(lp7671
I87
as(I1
I3
tp7672
(lp7673
I23
as(I2
I3
tp7674
(lp7675
I26
as(I2
I2
tp7676
(lp7677
I81
as(I1
I0
tp7678
(lp7679
I1
as(I0
I3
tp7680
(lp7681
I98
as(I1
I1
tp7682
(lp7683
I77
assg199
g371
ssI42
(dp7684
g165
(dp7685
(I0
I1
tp7686
(lp7687
I18
as(I1
I2
tp7688
(lp7689
I47
as(I3
I2
tp7690
(lp7691
I59
as(I0
I0
tp7692
(lp7693
I64
as(I3
I3
tp7694
(lp7695
I93
as(I3
I0
tp7696
(lp7697
I81
as(I3
I1
tp7698
(lp7699
I59
as(I2
I1
tp7700
(lp7701
I4
as(I0
I2
tp7702
(lp7703
I6
as(I2
I0
tp7704
(lp7705
I86
as(I1
I3
tp7706
(lp7707
I54
as(I2
I3
tp7708
(lp7709
I73
as(I2
I2
tp7710
(lp7711
I54
as(I1
I0
tp7712
(lp7713
I24
as(I0
I3
tp7714
(lp7715
I79
as(I1
I1
tp7716
(lp7717
I73
assg199
g371
ssI11
g4123
sI13
g4499
sI15
g4977
sI47
(dp7718
g165
(dp7719
(I0
I1
tp7720
(lp7721
I71
as(I1
I2
tp7722
(lp7723
I43
as(I3
I2
tp7724
(lp7725
I24
as(I0
I0
tp7726
(lp7727
I1
as(I3
I3
tp7728
(lp7729
I78
as(I3
I0
tp7730
(lp7731
I100
as(I3
I1
tp7732
(lp7733
I66
as(I2
I1
tp7734
(lp7735
I97
as(I0
I2
tp7736
(lp7737
I97
as(I2
I0
tp7738
(lp7739
I42
as(I1
I3
tp7740
(lp7741
I79
as(I2
I3
tp7742
(lp7743
I89
as(I2
I2
tp7744
(lp7745
I90
as(I1
I0
tp7746
(lp7747
I2
as(I0
I3
tp7748
(lp7749
I35
as(I1
I1
tp7750
(lp7751
I74
assg199
g371
ssI29
g6895
ssI37
(dp7752
I1
g713
sI36
g7616
sI7
g2963
sI23
g6277
sI28
g6758
sI29
g6793
sI31
g7101
ssI38
(dp7753
I0
g235
sI36
g7650
sI10
g3782
sI4
g1906
sI6
g2588
ssI39
(dp7754
I32
g7170
sI1
g781
sI6
g2622
sI33
g7273
sI45
(dp7755
g165
(dp7756
(I0
I1
tp7757
(lp7758
I45
as(I1
I2
tp7759
(lp7760
I40
as(I3
I2
tp7761
(lp7762
I44
as(I0
I0
tp7763
(lp7764
I96
as(I3
I3
tp7765
(lp7766
I14
as(I3
I0
tp7767
(lp7768
I77
as(I3
I1
tp7769
(lp7770
I59
as(I2
I1
tp7771
(lp7772
I45
as(I0
I2
tp7773
(lp7774
I51
as(I2
I0
tp7775
(lp7776
I4
as(I1
I3
tp7777
(lp7778
I43
as(I2
I3
tp7779
(lp7780
I51
as(I2
I2
tp7781
(lp7782
I79
as(I1
I0
tp7783
(lp7784
I53
as(I0
I3
tp7785
(lp7786
I22
as(I1
I1
tp7787
(lp7788
I30
assg199
g371
ssI16
g5114
sI18
g5456
sI20
g5696
ssI40
(dp7789
I0
g576
sI2
g1088
sI6
g2656
sI9
g3611
sI15
g5011
sI48
(dp7790
g165
(dp7791
(I0
I1
tp7792
(lp7793
I50
as(I1
I2
tp7794
(lp7795
I98
as(I3
I2
tp7796
(lp7797
I7
as(I0
I0
tp7798
(lp7799
I41
as(I3
I3
tp7800
(lp7801
I83
as(I3
I0
tp7802
(lp7803
I27
as(I3
I1
tp7804
(lp7805
I76
as(I2
I1
tp7806
(lp7807
I67
as(I0
I2
tp7808
(lp7809
I35
as(I2
I0
tp7810
(lp7811
I31
as(I1
I3
tp7812
(lp7813
I49
as(I2
I3
tp7814
(lp7815
I74
as(I2
I2
tp7816
(lp7817
I94
as(I1
I0
tp7818
(lp7819
I14
as(I0
I3
tp7820
(lp7821
I77
as(I1
I1
tp7822
(lp7823
I78
assg199
g371
ssI21
g6003
sI22
g6106
sI41
(dp7824
g165
(dp7825
(I0
I1
tp7826
(lp7827
I68
as(I1
I2
tp7828
(lp7829
I61
as(I3
I2
tp7830
(lp7831
I79
as(I0
I0
tp7832
(lp7833
I28
as(I3
I3
tp7834
(lp7835
I67
as(I3
I0
tp7836
(lp7837
I98
as(I3
I1
tp7838
(lp7839
I88
as(I2
I1
tp7840
(lp7841
I68
as(I0
I2
tp7842
(lp7843
I74
as(I2
I0
tp7844
(lp7845
I62
as(I1
I3
tp7846
(lp7847
I60
as(I2
I3
tp7848
(lp7849
I74
as(I2
I2
tp7850
(lp7851
I96
as(I1
I0
tp7852
(lp7853
I12
as(I0
I3
tp7854
(lp7855
I57
as(I1
I1
tp7856
(lp7857
I73
assg199
g371
ssI25
g6483
sI47
(dp7858
g165
(dp7859
(I0
I1
tp7860
(lp7861
I58
as(I1
I2
tp7862
(lp7863
I59
as(I3
I2
tp7864
(lp7865
I55
as(I0
I0
tp7866
(lp7867
I80
as(I3
I3
tp7868
(lp7869
I44
as(I3
I0
tp7870
(lp7871
I67
as(I3
I1
tp7872
(lp7873
I9
as(I2
I1
tp7874
(lp7875
I37
as(I0
I2
tp7876
(lp7877
I27
as(I2
I0
tp7878
(lp7879
I87
as(I1
I3
tp7880
(lp7881
I11
as(I2
I3
tp7882
(lp7883
I15
as(I2
I2
tp7884
(lp7885
I88
as(I1
I0
tp7886
(lp7887
I44
as(I0
I3
tp7888
(lp7889
I68
as(I1
I1
tp7890
(lp7891
I93
assg199
g200
ssI28
g6656
ssI41
(dp7892
I33
g7307
sI34
g7478
sI4
g1940
sI5
g2247
sI6
g2826
sI7
g3031
sI40
g7824
sI43
(dp7893
g165
(dp7894
(I0
I1
tp7895
(lp7896
I91
as(I1
I2
tp7897
(lp7898
I33
as(I3
I2
tp7899
(lp7900
I64
as(I0
I0
tp7901
(lp7902
I91
as(I3
I3
tp7903
(lp7904
I100
as(I3
I0
tp7905
(lp7906
I16
as(I3
I1
tp7907
(lp7908
I31
as(I2
I1
tp7909
(lp7910
I53
as(I0
I2
tp7911
(lp7912
I27
as(I2
I0
tp7913
(lp7914
I4
as(I1
I3
tp7915
(lp7916
I64
as(I2
I3
tp7917
(lp7918
I92
as(I2
I2
tp7919
(lp7920
I73
as(I1
I0
tp7921
(lp7922
I21
as(I0
I3
tp7923
(lp7924
I73
as(I1
I1
tp7925
(lp7926
I91
assg199
g371
ssI44
(dp7927
g165
(dp7928
(I0
I1
tp7929
(lp7930
I3
as(I1
I2
tp7931
(lp7932
I19
as(I3
I2
tp7933
(lp7934
I60
as(I0
I0
tp7935
(lp7936
I72
as(I3
I3
tp7937
(lp7938
I63
as(I3
I0
tp7939
(lp7940
I73
as(I3
I1
tp7941
(lp7942
I32
as(I2
I1
tp7943
(lp7944
I73
as(I0
I2
tp7945
(lp7946
I8
as(I2
I0
tp7947
(lp7948
I16
as(I1
I3
tp7949
(lp7950
I67
as(I2
I3
tp7951
(lp7952
I62
as(I2
I2
tp7953
(lp7954
I52
as(I1
I0
tp7955
(lp7956
I62
as(I0
I3
tp7957
(lp7958
I100
as(I1
I1
tp7959
(lp7960
I99
assg199
g371
ssI13
g4533
sI45
(dp7961
g165
(dp7962
(I0
I1
tp7963
(lp7964
I98
as(I1
I2
tp7965
(lp7966
I38
as(I3
I2
tp7967
(lp7968
I70
as(I0
I0
tp7969
(lp7970
I26
as(I3
I3
tp7971
(lp7972
I91
as(I3
I0
tp7973
(lp7974
I13
as(I3
I1
tp7975
(lp7976
I99
as(I2
I1
tp7977
(lp7978
I40
as(I0
I2
tp7979
(lp7980
I29
as(I2
I0
tp7981
(lp7982
I32
as(I1
I3
tp7983
(lp7984
I32
as(I2
I3
tp7985
(lp7986
I10
as(I2
I2
tp7987
(lp7988
I10
as(I1
I0
tp7989
(lp7990
I85
as(I0
I3
tp7991
(lp7992
I46
as(I1
I1
tp7993
(lp7994
I38
assg199
g200
ssI20
g5730
sI47
(dp7995
g165
(dp7996
(I0
I1
tp7997
(lp7998
I20
as(I1
I2
tp7999
(lp8000
I26
as(I3
I2
tp8001
(lp8002
I2
as(I0
I0
tp8003
(lp8004
I76
as(I3
I3
tp8005
(lp8006
I70
as(I3
I0
tp8007
(lp8008
I72
as(I3
I1
tp8009
(lp8010
I18
as(I2
I1
tp8011
(lp8012
I8
as(I0
I2
tp8013
(lp8014
I53
as(I2
I0
tp8015
(lp8016
I31
as(I1
I3
tp8017
(lp8018
I3
as(I2
I3
tp8019
(lp8020
I33
as(I2
I2
tp8021
(lp8022
I8
as(I1
I0
tp8023
(lp8024
I51
as(I0
I3
tp8025
(lp8026
I45
as(I1
I1
tp8027
(lp8028
I84
assg199
g200
ssI30
g6930
ssI42
(dp8029
I3
g1599
sI4
g2178
sI5
g2281
sI12
g4430
sI35
g7547
sI24
g6414
sI36
g7684
ssI43
(dp8030
I0
g542
sI33
g7341
sI32
g7204
sI8
g3406
sI41
g7893
sI45
(dp8031
g165
(dp8032
(I0
I1
tp8033
(lp8034
I8
as(I1
I2
tp8035
(lp8036
I8
as(I3
I2
tp8037
(lp8038
I34
as(I0
I0
tp8039
(lp8040
I63
as(I3
I3
tp8041
(lp8042
I90
as(I3
I0
tp8043
(lp8044
I77
as(I3
I1
tp8045
(lp8046
I57
as(I2
I1
tp8047
(lp8048
I88
as(I0
I2
tp8049
(lp8050
I33
as(I2
I0
tp8051
(lp8052
I80
as(I1
I3
tp8053
(lp8054
I41
as(I2
I3
tp8055
(lp8056
I94
as(I2
I2
tp8057
(lp8058
I5
as(I1
I0
tp8059
(lp8060
I93
as(I0
I3
tp8061
(lp8062
I59
as(I1
I1
tp8063
(lp8064
I32
assg199
g371
ssI46
(dp8065
g165
(dp8066
(I0
I1
tp8067
(lp8068
I77
as(I1
I2
tp8069
(lp8070
I22
as(I3
I2
tp8071
(lp8072
I35
as(I0
I0
tp8073
(lp8074
I62
as(I3
I3
tp8075
(lp8076
I27
as(I3
I0
tp8077
(lp8078
I46
as(I3
I1
tp8079
(lp8080
I16
as(I2
I1
tp8081
(lp8082
I70
as(I0
I2
tp8083
(lp8084
I79
as(I2
I0
tp8085
(lp8086
I48
as(I1
I3
tp8087
(lp8088
I54
as(I2
I3
tp8089
(lp8090
I76
as(I2
I2
tp8091
(lp8092
I49
as(I1
I0
tp8093
(lp8094
I60
as(I0
I3
tp8095
(lp8096
I81
as(I1
I1
tp8097
(lp8098
I30
assg199
g371
ssI16
g5148
sI26
g6552
ssI44
(dp8099
I32
g7238
sI33
g7409
sI2
g1190
sI4
g2008
sI41
g7927
sI10
g3884
sI47
(dp8100
g165
(dp8101
(I0
I1
tp8102
(lp8103
I87
as(I1
I2
tp8104
(lp8105
I49
as(I3
I2
tp8106
(lp8107
I87
as(I0
I0
tp8108
(lp8109
I16
as(I3
I3
tp8110
(lp8111
I47
as(I3
I0
tp8112
(lp8113
I43
as(I3
I1
tp8114
(lp8115
I98
as(I2
I1
tp8116
(lp8117
I76
as(I0
I2
tp8118
(lp8119
I4
as(I2
I0
tp8120
(lp8121
I76
as(I1
I3
tp8122
(lp8123
I63
as(I2
I3
tp8124
(lp8125
I18
as(I2
I2
tp8126
(lp8127
I77
as(I1
I0
tp8128
(lp8129
I89
as(I0
I3
tp8130
(lp8131
I41
as(I1
I1
tp8132
(lp8133
I27
assg199
g371
ssI20
g5764
sI21
g5935
sI30
g6964
sI31
g7135
ssI45
(dp8134
I1
g849
sI2
g1054
sI39
g7755
sI41
g7961
sI43
g8031
sI34
g7512
sI29
g6827
ssI46
(dp8135
I33
g7375
sI4
g2042
sI7
g3133
sI43
g8065
sI16
g5216
sI22
g6072
sI28
g6690
sI30
g7032
ssI47
(dp8136
I2
g1292
sI3
g1667
sI36
g7718
sI40
g7858
sI9
g3543
sI12
g4294
sI13
g4601
sI15
g5045
sI48
(dp8137
g165
(dp8138
(I0
I1
tp8139
(lp8140
I86
as(I1
I2
tp8141
(lp8142
I30
as(I3
I2
tp8143
(lp8144
I91
as(I0
I0
tp8145
(lp8146
I55
as(I3
I3
tp8147
(lp8148
I6
as(I3
I0
tp8149
(lp8150
I54
as(I3
I1
tp8151
(lp8152
I94
as(I2
I1
tp8153
(lp8154
I16
as(I0
I2
tp8155
(lp8156
I98
as(I2
I0
tp8157
(lp8158
I14
as(I1
I3
tp8159
(lp8160
I99
as(I2
I3
tp8161
(lp8162
I10
as(I2
I2
tp8163
(lp8164
I85
as(I1
I0
tp8165
(lp8166
I96
as(I0
I3
tp8167
(lp8168
I89
as(I1
I1
tp8169
(lp8170
I55
assg199
g371
ssI35
g7581
sI41
g7995
sI24
g6448
sI44
g8100
ssI48
(dp8171
I2
g1326
sI5
g2417
sI6
g2758
sI8
g3440
sI13
g4635
sI14
g4840
sI47
g8137
sI40
g7790
sI21
g5969
sI30
g6998
sssS'graph'
p8172
(dp8173
sS'adjlist_dict_factory'
p8174
g159
sS'adj'
p8175
g162
sb.